---
triple:          'arm64-apple-darwin'
binary-path:     dij
relocations:
  - { offsetInCU: 0x5C, offset: 0x5C, size: 0x8, addend: 0x0, symName: __ZNSt3__1L19piecewise_constructE, symObjAddr: 0x11440, symBinAddr: 0x100013524, symSize: 0x0 }
  - { offsetInCU: 0x49C6, offset: 0x49C6, size: 0x8, addend: 0x0, symName: __ZNSt3__16copy_nB8ue170006IPKcmPcEENS_9enable_ifIXsr37__has_random_access_iterator_categoryIT_EE5valueET1_E4typeES5_T0_S6_, symObjAddr: 0x42E8, symBinAddr: 0x100005E68, symSize: 0x44 }
  - { offsetInCU: 0x11DB3, offset: 0x11DB3, size: 0x8, addend: 0x0, symName: __ZNSt3__124__put_character_sequenceB8ue170006IcNS_11char_traitsIcEEEERNS_13basic_ostreamIT_T0_EES7_PKS4_m, symObjAddr: 0xCF48, symBinAddr: 0x10000EAC8, symSize: 0x1EC }
  - { offsetInCU: 0x135B0, offset: 0x135B0, size: 0x8, addend: 0x0, symName: __ZNSt3__1lsB8ue170006INS_11char_traitsIcEEEERNS_13basic_ostreamIcT_EES6_PKc, symObjAddr: 0x414, symBinAddr: 0x100001F94, symSize: 0x48 }
  - { offsetInCU: 0x13E07, offset: 0x13E07, size: 0x8, addend: 0x0, symName: __ZNSt3__17getlineB8ue170006IcNS_11char_traitsIcEENS_9allocatorIcEEEERNS_13basic_istreamIT_T0_EES9_RNS_12basic_stringIS6_S7_T1_EE, symObjAddr: 0x17A4, symBinAddr: 0x100003324, symSize: 0x5C }
  - { offsetInCU: 0x13E5F, offset: 0x13E5F, size: 0x8, addend: 0x0, symName: __ZNSt3__1lsB8ue170006IcNS_11char_traitsIcEENS_9allocatorIcEEEERNS_13basic_ostreamIT_T0_EES9_RKNS_12basic_stringIS6_S7_T1_EE, symObjAddr: 0x1B40, symBinAddr: 0x1000036C0, symSize: 0x4C }
  - { offsetInCU: 0x13EC2, offset: 0x13EC2, size: 0x8, addend: 0x0, symName: __ZNSt3__17getlineB8ue170006IcNS_11char_traitsIcEENS_9allocatorIcEEEERNS_13basic_istreamIT_T0_EES9_RNS_12basic_stringIS6_S7_T1_EES6_, symObjAddr: 0x1F18, symBinAddr: 0x100003A98, symSize: 0x238 }
  - { offsetInCU: 0x13FB3, offset: 0x13FB3, size: 0x8, addend: 0x0, symName: __ZNSt3__19use_facetB8ue170006INS_5ctypeIcEEEERKT_RKNS_6localeE, symObjAddr: 0x284C, symBinAddr: 0x1000043CC, symSize: 0x2C }
  - { offsetInCU: 0x14391, offset: 0x14391, size: 0x8, addend: 0x0, symName: __ZNSt3__1rsB8ue170006IcNS_11char_traitsIcEENS_9allocatorIcEEEERNS_13basic_istreamIT_T0_EES9_RNS_12basic_stringIS6_S7_T1_EE, symObjAddr: 0x2A10, symBinAddr: 0x100004590, symSize: 0x318 }
  - { offsetInCU: 0x14460, offset: 0x14460, size: 0x8, addend: 0x0, symName: __ZNSt3__1rsB8ue170006INS_18basic_stringstreamIcNS_11char_traitsIcEENS_9allocatorIcEEEERdvEEOT_S9_OT0_, symObjAddr: 0x2D50, symBinAddr: 0x1000048D0, symSize: 0x30 }
  - { offsetInCU: 0x146B1, offset: 0x146B1, size: 0x8, addend: 0x0, symName: __ZNSt3__1plB8ue170006IcNS_11char_traitsIcEENS_9allocatorIcEEEENS_12basic_stringIT_T0_T1_EEOS9_RKS9_, symObjAddr: 0x3954, symBinAddr: 0x1000054D4, symSize: 0x40 }
  - { offsetInCU: 0x14709, offset: 0x14709, size: 0x8, addend: 0x0, symName: __ZNSt3__1plB8ue170006IcNS_11char_traitsIcEENS_9allocatorIcEEEENS_12basic_stringIT_T0_T1_EERKS9_PKS6_, symObjAddr: 0x3994, symBinAddr: 0x100005514, symSize: 0x11C }
  - { offsetInCU: 0x147AA, offset: 0x147AA, size: 0x8, addend: 0x0, symName: __ZNSt3__112__to_addressB8ue170006IKcEEPT_S3_, symObjAddr: 0x3B58, symBinAddr: 0x1000056D8, symSize: 0x14 }
  - { offsetInCU: 0x14812, offset: 0x14812, size: 0x8, addend: 0x0, symName: __ZNSt3__112__to_addressB8ue170006IcEEPT_S2_, symObjAddr: 0x3CEC, symBinAddr: 0x10000586C, symSize: 0x14 }
  - { offsetInCU: 0x14847, offset: 0x14847, size: 0x8, addend: 0x0, symName: __ZNSt3__118__constexpr_strlenB8ue170006EPKc, symObjAddr: 0x3DD8, symBinAddr: 0x100005958, symSize: 0x24 }
  - { offsetInCU: 0x14873, offset: 0x14873, size: 0x8, addend: 0x0, symName: __ZNSt3__120__throw_length_errorB8ue170006EPKc, symObjAddr: 0x40D8, symBinAddr: 0x100005C58, symSize: 0x64 }
  - { offsetInCU: 0x1489D, offset: 0x1489D, size: 0x8, addend: 0x0, symName: __ZNSt3__117__libcpp_allocateB8ue170006Emm, symObjAddr: 0x4264, symBinAddr: 0x100005DE4, symSize: 0x28 }
  - { offsetInCU: 0x148DA, offset: 0x148DA, size: 0x8, addend: 0x0, symName: __ZNSt3__121__libcpp_operator_newB8ue170006IJmEEEPvDpT_, symObjAddr: 0x428C, symBinAddr: 0x100005E0C, symSize: 0x24 }
  - { offsetInCU: 0x14913, offset: 0x14913, size: 0x8, addend: 0x0, symName: __ZNSt3__14copyB8ue170006IPKcPcEET0_T_S5_S4_, symObjAddr: 0x432C, symBinAddr: 0x100005EAC, symSize: 0x40 }
  - { offsetInCU: 0x1496D, offset: 0x1496D, size: 0x8, addend: 0x0, symName: __ZNSt3__16__copyB8ue170006INS_17_ClassicAlgPolicyEPKcS3_PcEENS_4pairIT0_T2_EES6_T1_S7_, symObjAddr: 0x436C, symBinAddr: 0x100005EEC, symSize: 0x44 }
  - { offsetInCU: 0x149D9, offset: 0x149D9, size: 0x8, addend: 0x0, symName: __ZNSt3__123__dispatch_copy_or_moveB8ue170006INS_17_ClassicAlgPolicyENS_11__copy_loopIS1_EENS_14__copy_trivialEPKcS6_PcEENS_4pairIT2_T4_EES9_T3_SA_, symObjAddr: 0x43B0, symBinAddr: 0x100005F30, symSize: 0x44 }
  - { offsetInCU: 0x14A57, offset: 0x14A57, size: 0x8, addend: 0x0, symName: __ZNSt3__121__unwrap_and_dispatchB8ue170006INS_10__overloadINS_11__copy_loopINS_17_ClassicAlgPolicyEEENS_14__copy_trivialEEEPKcS8_PcLi0EEENS_4pairIT0_T2_EESB_T1_SC_, symObjAddr: 0x43F4, symBinAddr: 0x100005F74, symSize: 0xB4 }
  - { offsetInCU: 0x14AE5, offset: 0x14AE5, size: 0x8, addend: 0x0, symName: __ZNSt3__114__unwrap_rangeB8ue170006IPKcS2_EENS_4pairIT0_S4_EET_S6_, symObjAddr: 0x44A8, symBinAddr: 0x100006028, symSize: 0x60 }
  - { offsetInCU: 0x14C7A, offset: 0x14C7A, size: 0x8, addend: 0x0, symName: __ZNSt3__113__unwrap_iterB8ue170006IPcNS_18__unwrap_iter_implIS1_Lb1EEELi0EEEDTclsrT0_8__unwrapclsr3stdE7declvalIT_EEEES5_, symObjAddr: 0x4550, symBinAddr: 0x1000060D0, symSize: 0x24 }
  - { offsetInCU: 0x14CBE, offset: 0x14CBE, size: 0x8, addend: 0x0, symName: __ZNSt3__19make_pairB8ue170006IPKcPcEENS_4pairINS_18__unwrap_ref_decayIT_E4typeENS5_IT0_E4typeEEEOS6_OS9_, symObjAddr: 0x4574, symBinAddr: 0x1000060F4, symSize: 0x38 }
  - { offsetInCU: 0x14D0D, offset: 0x14D0D, size: 0x8, addend: 0x0, symName: __ZNSt3__114__rewrap_rangeB8ue170006IPKcS2_EET_S3_T0_, symObjAddr: 0x45AC, symBinAddr: 0x10000612C, symSize: 0x2C }
  - { offsetInCU: 0x14D59, offset: 0x14D59, size: 0x8, addend: 0x0, symName: __ZNSt3__113__rewrap_iterB8ue170006IPcS1_NS_18__unwrap_iter_implIS1_Lb1EEEEET_S4_T0_, symObjAddr: 0x45D8, symBinAddr: 0x100006158, symSize: 0x3C }
  - { offsetInCU: 0x14DAE, offset: 0x14DAE, size: 0x8, addend: 0x0, symName: __ZNSt3__19make_pairB8ue170006IPKcS2_EENS_4pairINS_18__unwrap_ref_decayIT_E4typeENS4_IT0_E4typeEEEOS5_OS8_, symObjAddr: 0x4614, symBinAddr: 0x100006194, symSize: 0x38 }
  - { offsetInCU: 0x14DFD, offset: 0x14DFD, size: 0x8, addend: 0x0, symName: __ZNSt3__113__unwrap_iterB8ue170006IPKcNS_18__unwrap_iter_implIS2_Lb1EEELi0EEEDTclsrT0_8__unwrapclsr3stdE7declvalIT_EEEES6_, symObjAddr: 0x464C, symBinAddr: 0x1000061CC, symSize: 0x24 }
  - { offsetInCU: 0x14F68, offset: 0x14F68, size: 0x8, addend: 0x0, symName: __ZNSt3__119__copy_trivial_implB8ue170006IKccEENS_4pairIPT_PT0_EES4_S4_S6_, symObjAddr: 0x4704, symBinAddr: 0x100006284, symSize: 0x78 }
  - { offsetInCU: 0x14FD0, offset: 0x14FD0, size: 0x8, addend: 0x0, symName: __ZNSt3__119__constexpr_memmoveB8ue170006IcKcLi0EEEPT_S3_PT0_NS_15__element_countE, symObjAddr: 0x477C, symBinAddr: 0x1000062FC, symSize: 0x64 }
  - { offsetInCU: 0x1503E, offset: 0x1503E, size: 0x8, addend: 0x0, symName: __ZNSt3__19make_pairB8ue170006IRPKcPcEENS_4pairINS_18__unwrap_ref_decayIT_E4typeENS6_IT0_E4typeEEEOS7_OSA_, symObjAddr: 0x47E0, symBinAddr: 0x100006360, symSize: 0x38 }
  - { offsetInCU: 0x150E0, offset: 0x150E0, size: 0x8, addend: 0x0, symName: __ZNSt3__113__rewrap_iterB8ue170006IPKcS2_NS_18__unwrap_iter_implIS2_Lb1EEEEET_S5_T0_, symObjAddr: 0x491C, symBinAddr: 0x10000649C, symSize: 0x3C }
  - { offsetInCU: 0x15135, offset: 0x15135, size: 0x8, addend: 0x0, symName: __ZNSt3__16fill_nB8ue170006IPcmcEET_S2_T0_RKT1_, symObjAddr: 0x49E8, symBinAddr: 0x100006568, symSize: 0x44 }
  - { offsetInCU: 0x15198, offset: 0x15198, size: 0x8, addend: 0x0, symName: __ZNSt3__18__fill_nB8ue170006IPcmcEET_S2_T0_RKT1_, symObjAddr: 0x4A2C, symBinAddr: 0x1000065AC, symSize: 0x64 }
  - { offsetInCU: 0x151FB, offset: 0x151FB, size: 0x8, addend: 0x0, symName: __ZNSt3__121__convert_to_integralB8ue170006Em, symObjAddr: 0x4A90, symBinAddr: 0x100006610, symSize: 0x14 }
  - { offsetInCU: 0x15227, offset: 0x15227, size: 0x8, addend: 0x0, symName: __ZNSt3__1neB8ue170006ERKNS_21__hash_const_iteratorIPNS_11__hash_nodeINS_12basic_stringIcNS_11char_traitsIcEENS_9allocatorIcEEEEPvEEEESD_, symObjAddr: 0x4B08, symBinAddr: 0x100006688, symSize: 0x34 }
  - { offsetInCU: 0x15264, offset: 0x15264, size: 0x8, addend: 0x0, symName: __ZNSt3__1eqB8ue170006ERKNS_21__hash_const_iteratorIPNS_11__hash_nodeINS_12basic_stringIcNS_11char_traitsIcEENS_9allocatorIcEEEEPvEEEESD_, symObjAddr: 0x4D20, symBinAddr: 0x1000068A0, symSize: 0x30 }
  - { offsetInCU: 0x152A1, offset: 0x152A1, size: 0x8, addend: 0x0, symName: __ZNSt3__116__constrain_hashB8ue170006Emm, symObjAddr: 0x4E04, symBinAddr: 0x100006984, symSize: 0x98 }
  - { offsetInCU: 0x152DB, offset: 0x152DB, size: 0x8, addend: 0x0, symName: __ZNSt3__116__do_string_hashB8ue170006IPKcEEmT_S3_, symObjAddr: 0x4FD4, symBinAddr: 0x100006B54, symSize: 0x3C }
  - { offsetInCU: 0x15321, offset: 0x15321, size: 0x8, addend: 0x0, symName: __ZNSt3__110__loadwordB8ue170006ImEET_PKv, symObjAddr: 0x59C8, symBinAddr: 0x100007548, symSize: 0x20 }
  - { offsetInCU: 0x15364, offset: 0x15364, size: 0x8, addend: 0x0, symName: __ZNSt3__14swapB8ue170006ImEENS_9enable_ifIXaasr21is_move_constructibleIT_EE5valuesr18is_move_assignableIS2_EE5valueEvE4typeERS2_S5_, symObjAddr: 0x5B84, symBinAddr: 0x100007704, symSize: 0x3C }
  - { offsetInCU: 0x153B5, offset: 0x153B5, size: 0x8, addend: 0x0, symName: __ZNSt3__110__loadwordB8ue170006IjEET_PKv, symObjAddr: 0x5C14, symBinAddr: 0x100007794, symSize: 0x20 }
  - { offsetInCU: 0x153F8, offset: 0x153F8, size: 0x8, addend: 0x0, symName: __ZNSt3__1eqB8ue170006INS_9allocatorIcEEEEbRKNS_12basic_stringIcNS_11char_traitsIcEET_EES9_, symObjAddr: 0x5EAC, symBinAddr: 0x100007A2C, symSize: 0x148 }
  - { offsetInCU: 0x1549E, offset: 0x1549E, size: 0x8, addend: 0x0, symName: __ZNSt3__13maxB8ue170006ImEERKT_S3_S3_, symObjAddr: 0x67A8, symBinAddr: 0x100008328, symSize: 0x2C }
  - { offsetInCU: 0x154E1, offset: 0x154E1, size: 0x8, addend: 0x0, symName: __ZNSt3__116__is_hash_power2B8ue170006Em, symObjAddr: 0x67D4, symBinAddr: 0x100008354, symSize: 0x50 }
  - { offsetInCU: 0x1552B, offset: 0x1552B, size: 0x8, addend: 0x0, symName: __ZNSt3__116__next_hash_pow2B8ue170006Em, symObjAddr: 0x7290, symBinAddr: 0x100008E10, symSize: 0x6C }
  - { offsetInCU: 0x15573, offset: 0x15573, size: 0x8, addend: 0x0, symName: __ZNSt3__119__libcpp_deallocateB8ue170006EPvmm, symObjAddr: 0x7584, symBinAddr: 0x100009104, symSize: 0x30 }
  - { offsetInCU: 0x155BB, offset: 0x155BB, size: 0x8, addend: 0x0, symName: __ZNSt3__127__do_deallocate_handle_sizeB8ue170006IJEEEvPvmDpT_, symObjAddr: 0x75B4, symBinAddr: 0x100009134, symSize: 0x28 }
  - { offsetInCU: 0x155F9, offset: 0x155F9, size: 0x8, addend: 0x0, symName: __ZNSt3__124__libcpp_operator_deleteB8ue170006IJPvEEEvDpT_, symObjAddr: 0x75DC, symBinAddr: 0x10000915C, symSize: 0x24 }
  - { offsetInCU: 0x1562E, offset: 0x1562E, size: 0x8, addend: 0x0, symName: __ZNSt3__112__libcpp_clzB8ue170006Em, symObjAddr: 0x76B4, symBinAddr: 0x100009234, symSize: 0x1C }
  - { offsetInCU: 0x1565A, offset: 0x1565A, size: 0x8, addend: 0x0, symName: __ZNSt3__13maxB8ue170006ImNS_6__lessIvvEEEERKT_S5_S5_T0_, symObjAddr: 0x76D0, symBinAddr: 0x100009250, symSize: 0x54 }
  - { offsetInCU: 0x156F9, offset: 0x156F9, size: 0x8, addend: 0x0, symName: __ZNSt3__1neB8ue170006ERKNS_21__hash_const_iteratorIPNS_11__hash_nodeINS_17__hash_value_typeINS_12basic_stringIcNS_11char_traitsIcEENS_9allocatorIcEEEEiEEPvEEEESF_, symObjAddr: 0x7B0C, symBinAddr: 0x10000968C, symSize: 0x34 }
  - { offsetInCU: 0x15736, offset: 0x15736, size: 0x8, addend: 0x0, symName: __ZNSt3__1eqB8ue170006ERKNS_21__hash_const_iteratorIPNS_11__hash_nodeINS_17__hash_value_typeINS_12basic_stringIcNS_11char_traitsIcEENS_9allocatorIcEEEEiEEPvEEEESF_, symObjAddr: 0x7D24, symBinAddr: 0x1000098A4, symSize: 0x30 }
  - { offsetInCU: 0x157A6, offset: 0x157A6, size: 0x8, addend: 0x0, symName: __ZNSt3__112__to_addressB8ue170006IN5graph6vertexEEEPT_S4_, symObjAddr: 0x83DC, symBinAddr: 0x100009F5C, symSize: 0x14 }
  - { offsetInCU: 0x157DB, offset: 0x157DB, size: 0x8, addend: 0x0, symName: __ZNSt3__13minB8ue170006ImEERKT_S3_S3_, symObjAddr: 0x8AF0, symBinAddr: 0x10000A670, symSize: 0x2C }
  - { offsetInCU: 0x1581E, offset: 0x1581E, size: 0x8, addend: 0x0, symName: __ZNSt3__13minB8ue170006ImNS_6__lessIvvEEEERKT_S5_S5_T0_, symObjAddr: 0x8B68, symBinAddr: 0x10000A6E8, symSize: 0x54 }
  - { offsetInCU: 0x15878, offset: 0x15878, size: 0x8, addend: 0x0, symName: __ZNSt3__119__allocate_at_leastB8ue170006INS_9allocatorIN5graph6vertexEEEEENS_19__allocation_resultINS_16allocator_traitsIT_E7pointerEEERS7_m, symObjAddr: 0x8D88, symBinAddr: 0x10000A908, symSize: 0x40 }
  - { offsetInCU: 0x158BB, offset: 0x158BB, size: 0x8, addend: 0x0, symName: __ZNSt3__142__uninitialized_allocator_move_if_noexceptB8ue170006INS_9allocatorIN5graph6vertexEEENS_16reverse_iteratorIPS3_EES7_S7_EET2_RT_T0_T1_S8_, symObjAddr: 0x9014, symBinAddr: 0x10000AB94, symSize: 0x12C }
  - { offsetInCU: 0x1595B, offset: 0x1595B, size: 0x8, addend: 0x0, symName: __ZNSt3__14swapB8ue170006IPN5graph6vertexEEENS_9enable_ifIXaasr21is_move_constructibleIT_EE5valuesr18is_move_assignableIS5_EE5valueEvE4typeERS5_S8_, symObjAddr: 0x918C, symBinAddr: 0x10000AD0C, symSize: 0x3C }
  - { offsetInCU: 0x159AC, offset: 0x159AC, size: 0x8, addend: 0x0, symName: __ZNSt3__122__make_exception_guardB8ue170006INS_29_AllocatorDestroyRangeReverseINS_9allocatorIN5graph6vertexEEENS_16reverse_iteratorIPS4_EEEEEENS_28__exception_guard_exceptionsIT_EESB_, symObjAddr: 0x92D8, symBinAddr: 0x10000AE58, symSize: 0x4C }
  - { offsetInCU: 0x159E2, offset: 0x159E2, size: 0x8, addend: 0x0, symName: __ZNSt3__1neB8ue170006IPN5graph6vertexES3_EEbRKNS_16reverse_iteratorIT_EERKNS4_IT0_EE, symObjAddr: 0x9368, symBinAddr: 0x10000AEE8, symSize: 0x48 }
  - { offsetInCU: 0x15A2E, offset: 0x15A2E, size: 0x8, addend: 0x0, symName: __ZNSt3__112__to_addressB8ue170006INS_16reverse_iteratorIPN5graph6vertexEEEvEEu7__decayIDTclsr19__to_address_helperIT_EE6__callclsr3stdE7declvalIRKS6_EEEEES8_, symObjAddr: 0x93B0, symBinAddr: 0x10000AF30, symSize: 0x24 }
  - { offsetInCU: 0x15A8D, offset: 0x15A8D, size: 0x8, addend: 0x0, symName: __ZNSt3__119__allocator_destroyB8ue170006INS_9allocatorIN5graph6vertexEEENS_16reverse_iteratorINS5_IPS3_EEEES8_EEvRT_T0_T1_, symObjAddr: 0x9660, symBinAddr: 0x10000B1E0, symSize: 0x70 }
  - { offsetInCU: 0x15AF2, offset: 0x15AF2, size: 0x8, addend: 0x0, symName: __ZNSt3__1neB8ue170006INS_16reverse_iteratorIPN5graph6vertexEEES5_EEbRKNS1_IT_EERKNS1_IT0_EE, symObjAddr: 0x970C, symBinAddr: 0x10000B28C, symSize: 0x60 }
  - { offsetInCU: 0x15B3E, offset: 0x15B3E, size: 0x8, addend: 0x0, symName: __ZNSt3__112__to_addressB8ue170006INS_16reverse_iteratorINS1_IPN5graph6vertexEEEEEvEEu7__decayIDTclsr19__to_address_helperIT_EE6__callclsr3stdE7declvalIRKS7_EEEEES9_, symObjAddr: 0x9798, symBinAddr: 0x10000B318, symSize: 0x24 }
  - { offsetInCU: 0x15B9D, offset: 0x15B9D, size: 0x8, addend: 0x0, symName: __ZNSt3__112__to_addressB8ue170006IN5graph4edgeEEEPT_S4_, symObjAddr: 0xA0F8, symBinAddr: 0x10000BC78, symSize: 0x14 }
  - { offsetInCU: 0x15C09, offset: 0x15C09, size: 0x8, addend: 0x0, symName: __ZNSt3__116forward_as_tupleB8ue170006IJRKNS_12basic_stringIcNS_11char_traitsIcEENS_9allocatorIcEEEEEEENS_5tupleIJDpOT_EEESC_, symObjAddr: 0xA728, symBinAddr: 0x10000C2A8, symSize: 0x2C }
  - { offsetInCU: 0x15C42, offset: 0x15C42, size: 0x8, addend: 0x0, symName: __ZNSt3__116forward_as_tupleB8ue170006IJEEENS_5tupleIJDpOT_EEES4_, symObjAddr: 0xA754, symBinAddr: 0x10000C2D4, symSize: 0x4 }
  - { offsetInCU: 0x15C8F, offset: 0x15C8F, size: 0x8, addend: 0x0, symName: __ZNSt3__13getB8ue170006ILm0EJRKNS_12basic_stringIcNS_11char_traitsIcEENS_9allocatorIcEEEEEEERNS_13tuple_elementIXT_ENS_5tupleIJDpT0_EEEE4typeERSD_, symObjAddr: 0xB024, symBinAddr: 0x10000CBA4, symSize: 0x24 }
  - { offsetInCU: 0x15D29, offset: 0x15D29, size: 0x8, addend: 0x0, symName: __ZNSt3__119__allocate_at_leastB8ue170006INS_9allocatorIN5graph4edgeEEEEENS_19__allocation_resultINS_16allocator_traitsIT_E7pointerEEERS7_m, symObjAddr: 0xC350, symBinAddr: 0x10000DED0, symSize: 0x40 }
  - { offsetInCU: 0x15D6C, offset: 0x15D6C, size: 0x8, addend: 0x0, symName: __ZNSt3__142__uninitialized_allocator_move_if_noexceptB8ue170006INS_9allocatorIN5graph4edgeEEENS_16reverse_iteratorIPS3_EES7_S3_vEET1_RT_T0_SB_S8_, symObjAddr: 0xC504, symBinAddr: 0x10000E084, symSize: 0x78 }
  - { offsetInCU: 0x15DE9, offset: 0x15DE9, size: 0x8, addend: 0x0, symName: __ZNSt3__14swapB8ue170006IPN5graph4edgeEEENS_9enable_ifIXaasr21is_move_constructibleIT_EE5valuesr18is_move_assignableIS5_EE5valueEvE4typeERS5_S8_, symObjAddr: 0xC5C8, symBinAddr: 0x10000E148, symSize: 0x3C }
  - { offsetInCU: 0x15E3A, offset: 0x15E3A, size: 0x8, addend: 0x0, symName: __ZNSt3__14moveB8ue170006INS_16reverse_iteratorIPN5graph4edgeEEES5_EET0_T_S7_S6_, symObjAddr: 0xC6B0, symBinAddr: 0x10000E230, symSize: 0x78 }
  - { offsetInCU: 0x15E94, offset: 0x15E94, size: 0x8, addend: 0x0, symName: __ZNSt3__16__moveB8ue170006INS_17_ClassicAlgPolicyENS_16reverse_iteratorIPN5graph4edgeEEES6_S6_EENS_4pairIT0_T2_EES8_T1_S9_, symObjAddr: 0xC728, symBinAddr: 0x10000E2A8, symSize: 0x64 }
  - { offsetInCU: 0x15F00, offset: 0x15F00, size: 0x8, addend: 0x0, symName: __ZNSt3__123__dispatch_copy_or_moveB8ue170006INS_17_ClassicAlgPolicyENS_11__move_loopIS1_EENS_14__move_trivialENS_16reverse_iteratorIPN5graph4edgeEEES9_S9_EENS_4pairIT2_T4_EESB_T3_SC_, symObjAddr: 0xC78C, symBinAddr: 0x10000E30C, symSize: 0x64 }
  - { offsetInCU: 0x15F7E, offset: 0x15F7E, size: 0x8, addend: 0x0, symName: __ZNSt3__121__unwrap_and_dispatchB8ue170006INS_10__overloadINS_11__move_loopINS_17_ClassicAlgPolicyEEENS_14__move_trivialEEENS_16reverse_iteratorIPN5graph4edgeEEESB_SB_Li0EEENS_4pairIT0_T2_EESD_T1_SE_, symObjAddr: 0xC7F0, symBinAddr: 0x10000E370, symSize: 0x12C }
  - { offsetInCU: 0x1600E, offset: 0x1600E, size: 0x8, addend: 0x0, symName: __ZNSt3__114__unwrap_rangeB8ue170006INS_16reverse_iteratorIPN5graph4edgeEEES5_EENS_4pairIT0_S7_EET_S9_, symObjAddr: 0xC91C, symBinAddr: 0x10000E49C, symSize: 0x84 }
  - { offsetInCU: 0x161C8, offset: 0x161C8, size: 0x8, addend: 0x0, symName: __ZNSt3__113__unwrap_iterB8ue170006INS_16reverse_iteratorIPN5graph4edgeEEENS_18__unwrap_iter_implIS5_Lb0EEELi0EEEDTclsrT0_8__unwrapclsr3stdE7declvalIT_EEEES9_, symObjAddr: 0xCA40, symBinAddr: 0x10000E5C0, symSize: 0x44 }
  - { offsetInCU: 0x1620C, offset: 0x1620C, size: 0x8, addend: 0x0, symName: __ZNSt3__19make_pairB8ue170006INS_16reverse_iteratorIPN5graph4edgeEEES5_EENS_4pairINS_18__unwrap_ref_decayIT_E4typeENS7_IT0_E4typeEEEOS8_OSB_, symObjAddr: 0xCA84, symBinAddr: 0x10000E604, symSize: 0x38 }
  - { offsetInCU: 0x1625B, offset: 0x1625B, size: 0x8, addend: 0x0, symName: __ZNSt3__114__rewrap_rangeB8ue170006INS_16reverse_iteratorIPN5graph4edgeEEES5_EET_S6_T0_, symObjAddr: 0xCABC, symBinAddr: 0x10000E63C, symSize: 0x5C }
  - { offsetInCU: 0x162A7, offset: 0x162A7, size: 0x8, addend: 0x0, symName: __ZNSt3__113__rewrap_iterB8ue170006INS_16reverse_iteratorIPN5graph4edgeEEES5_NS_18__unwrap_iter_implIS5_Lb0EEEEET_S8_T0_, symObjAddr: 0xCB18, symBinAddr: 0x10000E698, symSize: 0x74 }
  - { offsetInCU: 0x162FC, offset: 0x162FC, size: 0x8, addend: 0x0, symName: __ZNSt3__1neB8ue170006IPN5graph4edgeES3_EEbRKNS_16reverse_iteratorIT_EERKNS4_IT0_EE, symObjAddr: 0xCB8C, symBinAddr: 0x10000E70C, symSize: 0x48 }
  - { offsetInCU: 0x1642D, offset: 0x1642D, size: 0x8, addend: 0x0, symName: __ZNSt3__116__pad_and_outputB8ue170006IcNS_11char_traitsIcEEEENS_19ostreambuf_iteratorIT_T0_EES6_PKS4_S8_S8_RNS_8ios_baseES4_, symObjAddr: 0xD150, symBinAddr: 0x10000ECD0, symSize: 0x240 }
  - { offsetInCU: 0x164FC, offset: 0x164FC, size: 0x8, addend: 0x0, symName: __ZNSt3__1neB8ue170006IPN5graph4edgeEEEbRKNS_11__wrap_iterIT_EES8_, symObjAddr: 0xDE24, symBinAddr: 0x10000F9A4, symSize: 0x34 }
  - { offsetInCU: 0x1653F, offset: 0x1653F, size: 0x8, addend: 0x0, symName: __ZNSt3__112__to_addressB8ue170006IN5graph12vertex_labelEEEPT_S4_, symObjAddr: 0xE41C, symBinAddr: 0x10000FF9C, symSize: 0x14 }
  - { offsetInCU: 0x16574, offset: 0x16574, size: 0x8, addend: 0x0, symName: __ZNSt3__119__allocate_at_leastB8ue170006INS_9allocatorIN5graph12vertex_labelEEEEENS_19__allocation_resultINS_16allocator_traitsIT_E7pointerEEERS7_m, symObjAddr: 0xECCC, symBinAddr: 0x10001084C, symSize: 0x40 }
  - { offsetInCU: 0x165B7, offset: 0x165B7, size: 0x8, addend: 0x0, symName: __ZNSt3__142__uninitialized_allocator_move_if_noexceptB8ue170006INS_9allocatorIN5graph12vertex_labelEEENS_16reverse_iteratorIPS3_EES7_S3_vEET1_RT_T0_SB_S8_, symObjAddr: 0xEF74, symBinAddr: 0x100010AF4, symSize: 0x78 }
  - { offsetInCU: 0x16634, offset: 0x16634, size: 0x8, addend: 0x0, symName: __ZNSt3__14swapB8ue170006IPN5graph12vertex_labelEEENS_9enable_ifIXaasr21is_move_constructibleIT_EE5valuesr18is_move_assignableIS5_EE5valueEvE4typeERS5_S8_, symObjAddr: 0xF038, symBinAddr: 0x100010BB8, symSize: 0x3C }
  - { offsetInCU: 0x16685, offset: 0x16685, size: 0x8, addend: 0x0, symName: __ZNSt3__14moveB8ue170006INS_16reverse_iteratorIPN5graph12vertex_labelEEES5_EET0_T_S7_S6_, symObjAddr: 0xF13C, symBinAddr: 0x100010CBC, symSize: 0x78 }
  - { offsetInCU: 0x166DF, offset: 0x166DF, size: 0x8, addend: 0x0, symName: __ZNSt3__16__moveB8ue170006INS_17_ClassicAlgPolicyENS_16reverse_iteratorIPN5graph12vertex_labelEEES6_S6_EENS_4pairIT0_T2_EES8_T1_S9_, symObjAddr: 0xF1B4, symBinAddr: 0x100010D34, symSize: 0x64 }
  - { offsetInCU: 0x1674B, offset: 0x1674B, size: 0x8, addend: 0x0, symName: __ZNSt3__123__dispatch_copy_or_moveB8ue170006INS_17_ClassicAlgPolicyENS_11__move_loopIS1_EENS_14__move_trivialENS_16reverse_iteratorIPN5graph12vertex_labelEEES9_S9_EENS_4pairIT2_T4_EESB_T3_SC_, symObjAddr: 0xF218, symBinAddr: 0x100010D98, symSize: 0x64 }
  - { offsetInCU: 0x167C9, offset: 0x167C9, size: 0x8, addend: 0x0, symName: __ZNSt3__121__unwrap_and_dispatchB8ue170006INS_10__overloadINS_11__move_loopINS_17_ClassicAlgPolicyEEENS_14__move_trivialEEENS_16reverse_iteratorIPN5graph12vertex_labelEEESB_SB_Li0EEENS_4pairIT0_T2_EESD_T1_SE_, symObjAddr: 0xF27C, symBinAddr: 0x100010DFC, symSize: 0x12C }
  - { offsetInCU: 0x16859, offset: 0x16859, size: 0x8, addend: 0x0, symName: __ZNSt3__114__unwrap_rangeB8ue170006INS_16reverse_iteratorIPN5graph12vertex_labelEEES5_EENS_4pairIT0_S7_EET_S9_, symObjAddr: 0xF3A8, symBinAddr: 0x100010F28, symSize: 0x84 }
  - { offsetInCU: 0x16979, offset: 0x16979, size: 0x8, addend: 0x0, symName: __ZNSt3__113__unwrap_iterB8ue170006INS_16reverse_iteratorIPN5graph12vertex_labelEEENS_18__unwrap_iter_implIS5_Lb0EEELi0EEEDTclsrT0_8__unwrapclsr3stdE7declvalIT_EEEES9_, symObjAddr: 0xF4D4, symBinAddr: 0x100011054, symSize: 0x44 }
  - { offsetInCU: 0x169BD, offset: 0x169BD, size: 0x8, addend: 0x0, symName: __ZNSt3__19make_pairB8ue170006INS_16reverse_iteratorIPN5graph12vertex_labelEEES5_EENS_4pairINS_18__unwrap_ref_decayIT_E4typeENS7_IT0_E4typeEEEOS8_OSB_, symObjAddr: 0xF518, symBinAddr: 0x100011098, symSize: 0x38 }
  - { offsetInCU: 0x16A0C, offset: 0x16A0C, size: 0x8, addend: 0x0, symName: __ZNSt3__114__rewrap_rangeB8ue170006INS_16reverse_iteratorIPN5graph12vertex_labelEEES5_EET_S6_T0_, symObjAddr: 0xF550, symBinAddr: 0x1000110D0, symSize: 0x5C }
  - { offsetInCU: 0x16A58, offset: 0x16A58, size: 0x8, addend: 0x0, symName: __ZNSt3__113__rewrap_iterB8ue170006INS_16reverse_iteratorIPN5graph12vertex_labelEEES5_NS_18__unwrap_iter_implIS5_Lb0EEEEET_S8_T0_, symObjAddr: 0xF5AC, symBinAddr: 0x10001112C, symSize: 0x74 }
  - { offsetInCU: 0x16AAD, offset: 0x16AAD, size: 0x8, addend: 0x0, symName: __ZNSt3__1neB8ue170006IPN5graph12vertex_labelES3_EEbRKNS_16reverse_iteratorIT_EERKNS4_IT0_EE, symObjAddr: 0xF620, symBinAddr: 0x1000111A0, symSize: 0x48 }
  - { offsetInCU: 0x16B65, offset: 0x16B65, size: 0x8, addend: 0x0, symName: __ZNSt3__1eqB8ue170006IPN5graph4edgeEEEbRKNS_11__wrap_iterIT_EES8_, symObjAddr: 0xFE3C, symBinAddr: 0x1000119BC, symSize: 0x48 }
  - { offsetInCU: 0x1704B, offset: 0x1704B, size: 0x8, addend: 0x0, symName: __ZSt28__throw_bad_array_new_lengthB8ue170006v, symObjAddr: 0x4230, symBinAddr: 0x100005DB0, symSize: 0x34 }
  - { offsetInCU: 0x18B93, offset: 0x18B93, size: 0x8, addend: 0x0, symName: __ZNSt3__16vectorIN5graph6vertexENS_9allocatorIS2_EEE26__swap_out_circular_bufferERNS_14__split_bufferIS2_RS4_EE, symObjAddr: 0x88F8, symBinAddr: 0x10000A478, symSize: 0x110 }
  - { offsetInCU: 0x18C80, offset: 0x18C80, size: 0x8, addend: 0x0, symName: __ZNSt3__16vectorIN5graph4edgeENS_9allocatorIS2_EEE26__swap_out_circular_bufferERNS_14__split_bufferIS2_RS4_EE, symObjAddr: 0xBFF0, symBinAddr: 0x10000DB70, symSize: 0x110 }
  - { offsetInCU: 0x18CF5, offset: 0x18CF5, size: 0x8, addend: 0x0, symName: __ZNSt3__16vectorIN5graph12vertex_labelENS_9allocatorIS2_EEE26__swap_out_circular_bufferERNS_14__split_bufferIS2_RS4_EE, symObjAddr: 0xE95C, symBinAddr: 0x1000104DC, symSize: 0x110 }
  - { offsetInCU: 0x1B0AC, offset: 0x1B0AC, size: 0x8, addend: 0x0, symName: _main, symObjAddr: 0x0, symBinAddr: 0x100001B80, symSize: 0x3BC }
  - { offsetInCU: 0x1B12E, offset: 0x1B12E, size: 0x8, addend: 0x0, symName: __ZN5graphC1Ev, symObjAddr: 0x3BC, symBinAddr: 0x100001F3C, symSize: 0x2C }
  - { offsetInCU: 0x1B158, offset: 0x1B158, size: 0x8, addend: 0x0, symName: __ZNSt3__16vectorIN5graph12vertex_labelENS_9allocatorIS2_EEEC1B8ue170006Ev, symObjAddr: 0x3E8, symBinAddr: 0x100001F68, symSize: 0x2C }
  - { offsetInCU: 0x1B182, offset: 0x1B182, size: 0x8, addend: 0x0, symName: __ZN5graph9read_fileERKNSt3__112basic_stringIcNS0_11char_traitsIcEENS0_9allocatorIcEEEE, symObjAddr: 0x45C, symBinAddr: 0x100001FDC, symSize: 0x1FC }
  - { offsetInCU: 0x1B1DE, offset: 0x1B1DE, size: 0x8, addend: 0x0, symName: __ZNSt3__112basic_stringIcNS_11char_traitsIcEENS_9allocatorIcEEEC1B8ue170006ILi0EEEPKc, symObjAddr: 0x658, symBinAddr: 0x1000021D8, symSize: 0x34 }
  - { offsetInCU: 0x1B21D, offset: 0x1B21D, size: 0x8, addend: 0x0, symName: __ZN5graph12dijkstraHEAPENSt3__112basic_stringIcNS0_11char_traitsIcEENS0_9allocatorIcEEEERNS0_6vectorINS_12vertex_labelENS4_IS8_EEEE, symObjAddr: 0x68C, symBinAddr: 0x10000220C, symSize: 0x88 }
  - { offsetInCU: 0x1B271, offset: 0x1B271, size: 0x8, addend: 0x0, symName: __ZN5graph12dijkstraSCANENSt3__112basic_stringIcNS0_11char_traitsIcEENS0_9allocatorIcEEEERNS0_6vectorINS_12vertex_labelENS4_IS8_EEEE, symObjAddr: 0x714, symBinAddr: 0x100002294, symSize: 0x88 }
  - { offsetInCU: 0x1B2C5, offset: 0x1B2C5, size: 0x8, addend: 0x0, symName: __ZN5graph9num_nodesEv, symObjAddr: 0x79C, symBinAddr: 0x10000231C, symSize: 0x28 }
  - { offsetInCU: 0x1B2EB, offset: 0x1B2EB, size: 0x8, addend: 0x0, symName: __ZNSt3__16vectorIN5graph12vertex_labelENS_9allocatorIS2_EEEixB8ue170006Em, symObjAddr: 0x7C4, symBinAddr: 0x100002344, symSize: 0x2C }
  - { offsetInCU: 0x1B322, offset: 0x1B322, size: 0x8, addend: 0x0, symName: __ZNSt3__16vectorIN5graph12vertex_labelENS_9allocatorIS2_EEED1B8ue170006Ev, symObjAddr: 0x7F0, symBinAddr: 0x100002370, symSize: 0x2C }
  - { offsetInCU: 0x1B34C, offset: 0x1B34C, size: 0x8, addend: 0x0, symName: __ZN5graphD1Ev, symObjAddr: 0x81C, symBinAddr: 0x10000239C, symSize: 0x2C }
  - { offsetInCU: 0x1B376, offset: 0x1B376, size: 0x8, addend: 0x0, symName: __ZN5graphC2Ev, symObjAddr: 0x848, symBinAddr: 0x1000023C8, symSize: 0x44 }
  - { offsetInCU: 0x1B3A0, offset: 0x1B3A0, size: 0x8, addend: 0x0, symName: __ZNSt3__113unordered_mapINS_12basic_stringIcNS_11char_traitsIcEENS_9allocatorIcEEEEiNS_4hashIS6_EENS_8equal_toIS6_EENS4_INS_4pairIKS6_iEEEEEC1B8ue170006Ev, symObjAddr: 0x88C, symBinAddr: 0x10000240C, symSize: 0x2C }
  - { offsetInCU: 0x1B3CA, offset: 0x1B3CA, size: 0x8, addend: 0x0, symName: __ZNSt3__16vectorIN5graph6vertexENS_9allocatorIS2_EEEC1B8ue170006Ev, symObjAddr: 0x8B8, symBinAddr: 0x100002438, symSize: 0x2C }
  - { offsetInCU: 0x1B3F4, offset: 0x1B3F4, size: 0x8, addend: 0x0, symName: __ZNSt3__113unordered_setINS_12basic_stringIcNS_11char_traitsIcEENS_9allocatorIcEEEENS_4hashIS6_EENS_8equal_toIS6_EENS4_IS6_EEEC1B8ue170006Ev, symObjAddr: 0x8E4, symBinAddr: 0x100002464, symSize: 0x2C }
  - { offsetInCU: 0x1B41E, offset: 0x1B41E, size: 0x8, addend: 0x0, symName: __ZNSt3__113unordered_mapINS_12basic_stringIcNS_11char_traitsIcEENS_9allocatorIcEEEEiNS_4hashIS6_EENS_8equal_toIS6_EENS4_INS_4pairIKS6_iEEEEEC2B8ue170006Ev, symObjAddr: 0x910, symBinAddr: 0x100002490, symSize: 0x2C }
  - { offsetInCU: 0x1B448, offset: 0x1B448, size: 0x8, addend: 0x0, symName: __ZNSt3__112__hash_tableINS_17__hash_value_typeINS_12basic_stringIcNS_11char_traitsIcEENS_9allocatorIcEEEEiEENS_22__unordered_map_hasherIS7_S8_NS_4hashIS7_EENS_8equal_toIS7_EELb1EEENS_21__unordered_map_equalIS7_S8_SD_SB_Lb1EEENS5_IS8_EEEC1Ev, symObjAddr: 0x93C, symBinAddr: 0x1000024BC, symSize: 0x2C }
  - { offsetInCU: 0x1B474, offset: 0x1B474, size: 0x8, addend: 0x0, symName: __ZNSt3__112__hash_tableINS_17__hash_value_typeINS_12basic_stringIcNS_11char_traitsIcEENS_9allocatorIcEEEEiEENS_22__unordered_map_hasherIS7_S8_NS_4hashIS7_EENS_8equal_toIS7_EELb1EEENS_21__unordered_map_equalIS7_S8_SD_SB_Lb1EEENS5_IS8_EEEC2Ev, symObjAddr: 0x968, symBinAddr: 0x1000024E8, symSize: 0x7C }
  - { offsetInCU: 0x1B4A0, offset: 0x1B4A0, size: 0x8, addend: 0x0, symName: __ZNSt3__110unique_ptrIA_PNS_16__hash_node_baseIPNS_11__hash_nodeINS_17__hash_value_typeINS_12basic_stringIcNS_11char_traitsIcEENS_9allocatorIcEEEEiEEPvEEEENS_25__bucket_list_deallocatorINS7_ISF_EEEEEC1B8ue170006ILb1EvEEv, symObjAddr: 0x9E4, symBinAddr: 0x100002564, symSize: 0x2C }
  - { offsetInCU: 0x1B4D5, offset: 0x1B4D5, size: 0x8, addend: 0x0, symName: __ZNSt3__117__compressed_pairINS_16__hash_node_baseIPNS_11__hash_nodeINS_17__hash_value_typeINS_12basic_stringIcNS_11char_traitsIcEENS_9allocatorIcEEEEiEEPvEEEENS7_ISC_EEEC1B8ue170006ILb1EvEEv, symObjAddr: 0xA10, symBinAddr: 0x100002590, symSize: 0x2C }
  - { offsetInCU: 0x1B514, offset: 0x1B514, size: 0x8, addend: 0x0, symName: __ZNSt3__117__compressed_pairImNS_22__unordered_map_hasherINS_12basic_stringIcNS_11char_traitsIcEENS_9allocatorIcEEEENS_17__hash_value_typeIS7_iEENS_4hashIS7_EENS_8equal_toIS7_EELb1EEEEC1B8ue170006IiNS_18__default_init_tagEEEOT_OT0_, symObjAddr: 0xA48, symBinAddr: 0x1000025C8, symSize: 0x3C }
  - { offsetInCU: 0x1B571, offset: 0x1B571, size: 0x8, addend: 0x0, symName: __ZNSt3__117__compressed_pairIfNS_21__unordered_map_equalINS_12basic_stringIcNS_11char_traitsIcEENS_9allocatorIcEEEENS_17__hash_value_typeIS7_iEENS_8equal_toIS7_EENS_4hashIS7_EELb1EEEEC1B8ue170006IfNS_18__default_init_tagEEEOT_OT0_, symObjAddr: 0xA84, symBinAddr: 0x100002604, symSize: 0x3C }
  - { offsetInCU: 0x1B5C9, offset: 0x1B5C9, size: 0x8, addend: 0x0, symName: __ZNSt3__110unique_ptrIA_PNS_16__hash_node_baseIPNS_11__hash_nodeINS_17__hash_value_typeINS_12basic_stringIcNS_11char_traitsIcEENS_9allocatorIcEEEEiEEPvEEEENS_25__bucket_list_deallocatorINS7_ISF_EEEEEC2B8ue170006ILb1EvEEv, symObjAddr: 0xAC0, symBinAddr: 0x100002640, symSize: 0x3C }
  - { offsetInCU: 0x1B603, offset: 0x1B603, size: 0x8, addend: 0x0, symName: __ZNSt3__117__compressed_pairIPPNS_16__hash_node_baseIPNS_11__hash_nodeINS_17__hash_value_typeINS_12basic_stringIcNS_11char_traitsIcEENS_9allocatorIcEEEEiEEPvEEEENS_25__bucket_list_deallocatorINS7_ISF_EEEEEC1B8ue170006INS_16__value_init_tagESM_EEOT_OT0_, symObjAddr: 0xAFC, symBinAddr: 0x10000267C, symSize: 0x3C }
  - { offsetInCU: 0x1B65B, offset: 0x1B65B, size: 0x8, addend: 0x0, symName: __ZNSt3__117__compressed_pairIPPNS_16__hash_node_baseIPNS_11__hash_nodeINS_17__hash_value_typeINS_12basic_stringIcNS_11char_traitsIcEENS_9allocatorIcEEEEiEEPvEEEENS_25__bucket_list_deallocatorINS7_ISF_EEEEEC2B8ue170006INS_16__value_init_tagESM_EEOT_OT0_, symObjAddr: 0xB38, symBinAddr: 0x1000026B8, symSize: 0x40 }
  - { offsetInCU: 0x1B6B3, offset: 0x1B6B3, size: 0x8, addend: 0x0, symName: __ZNSt3__122__compressed_pair_elemIPPNS_16__hash_node_baseIPNS_11__hash_nodeINS_17__hash_value_typeINS_12basic_stringIcNS_11char_traitsIcEENS_9allocatorIcEEEEiEEPvEEEELi0ELb0EEC2B8ue170006ENS_16__value_init_tagE, symObjAddr: 0xB78, symBinAddr: 0x1000026F8, symSize: 0x18 }
  - { offsetInCU: 0x1B6E8, offset: 0x1B6E8, size: 0x8, addend: 0x0, symName: __ZNSt3__122__compressed_pair_elemINS_25__bucket_list_deallocatorINS_9allocatorIPNS_16__hash_node_baseIPNS_11__hash_nodeINS_17__hash_value_typeINS_12basic_stringIcNS_11char_traitsIcEENS2_IcEEEEiEEPvEEEEEEEELi1ELb0EEC2B8ue170006ENS_16__value_init_tagE, symObjAddr: 0xB90, symBinAddr: 0x100002710, symSize: 0x2C }
  - { offsetInCU: 0x1B71D, offset: 0x1B71D, size: 0x8, addend: 0x0, symName: __ZNSt3__125__bucket_list_deallocatorINS_9allocatorIPNS_16__hash_node_baseIPNS_11__hash_nodeINS_17__hash_value_typeINS_12basic_stringIcNS_11char_traitsIcEENS1_IcEEEEiEEPvEEEEEEEC1B8ue170006Ev, symObjAddr: 0xBBC, symBinAddr: 0x10000273C, symSize: 0x2C }
  - { offsetInCU: 0x1B747, offset: 0x1B747, size: 0x8, addend: 0x0, symName: __ZNSt3__125__bucket_list_deallocatorINS_9allocatorIPNS_16__hash_node_baseIPNS_11__hash_nodeINS_17__hash_value_typeINS_12basic_stringIcNS_11char_traitsIcEENS1_IcEEEEiEEPvEEEEEEEC2B8ue170006Ev, symObjAddr: 0xBE8, symBinAddr: 0x100002768, symSize: 0x40 }
  - { offsetInCU: 0x1B771, offset: 0x1B771, size: 0x8, addend: 0x0, symName: __ZNSt3__117__compressed_pairImNS_9allocatorIPNS_16__hash_node_baseIPNS_11__hash_nodeINS_17__hash_value_typeINS_12basic_stringIcNS_11char_traitsIcEENS1_IcEEEEiEEPvEEEEEEEC1B8ue170006IiNS_18__default_init_tagEEEOT_OT0_, symObjAddr: 0xC28, symBinAddr: 0x1000027A8, symSize: 0x3C }
  - { offsetInCU: 0x1B7C9, offset: 0x1B7C9, size: 0x8, addend: 0x0, symName: __ZNSt3__117__compressed_pairImNS_9allocatorIPNS_16__hash_node_baseIPNS_11__hash_nodeINS_17__hash_value_typeINS_12basic_stringIcNS_11char_traitsIcEENS1_IcEEEEiEEPvEEEEEEEC2B8ue170006IiNS_18__default_init_tagEEEOT_OT0_, symObjAddr: 0xC64, symBinAddr: 0x1000027E4, symSize: 0x40 }
  - { offsetInCU: 0x1B821, offset: 0x1B821, size: 0x8, addend: 0x0, symName: __ZNSt3__122__compressed_pair_elemImLi0ELb0EEC2B8ue170006IivEEOT_, symObjAddr: 0xCA4, symBinAddr: 0x100002824, symSize: 0x24 }
  - { offsetInCU: 0x1B863, offset: 0x1B863, size: 0x8, addend: 0x0, symName: __ZNSt3__122__compressed_pair_elemINS_9allocatorIPNS_16__hash_node_baseIPNS_11__hash_nodeINS_17__hash_value_typeINS_12basic_stringIcNS_11char_traitsIcEENS1_IcEEEEiEEPvEEEEEELi1ELb1EEC2B8ue170006ENS_18__default_init_tagE, symObjAddr: 0xCC8, symBinAddr: 0x100002848, symSize: 0x2C }
  - { offsetInCU: 0x1B898, offset: 0x1B898, size: 0x8, addend: 0x0, symName: __ZNSt3__19allocatorIPNS_16__hash_node_baseIPNS_11__hash_nodeINS_17__hash_value_typeINS_12basic_stringIcNS_11char_traitsIcEENS0_IcEEEEiEEPvEEEEEC2B8ue170006Ev, symObjAddr: 0xCF4, symBinAddr: 0x100002874, symSize: 0x2C }
  - { offsetInCU: 0x1B8C2, offset: 0x1B8C2, size: 0x8, addend: 0x0, symName: __ZNSt3__116__non_trivial_ifILb1ENS_9allocatorIPNS_16__hash_node_baseIPNS_11__hash_nodeINS_17__hash_value_typeINS_12basic_stringIcNS_11char_traitsIcEENS1_IcEEEEiEEPvEEEEEEEC2B8ue170006Ev, symObjAddr: 0xD20, symBinAddr: 0x1000028A0, symSize: 0x14 }
  - { offsetInCU: 0x1B8EC, offset: 0x1B8EC, size: 0x8, addend: 0x0, symName: __ZNSt3__117__compressed_pairINS_16__hash_node_baseIPNS_11__hash_nodeINS_17__hash_value_typeINS_12basic_stringIcNS_11char_traitsIcEENS_9allocatorIcEEEEiEEPvEEEENS7_ISC_EEEC2B8ue170006ILb1EvEEv, symObjAddr: 0xD34, symBinAddr: 0x1000028B4, symSize: 0x34 }
  - { offsetInCU: 0x1B921, offset: 0x1B921, size: 0x8, addend: 0x0, symName: __ZNSt3__122__compressed_pair_elemINS_16__hash_node_baseIPNS_11__hash_nodeINS_17__hash_value_typeINS_12basic_stringIcNS_11char_traitsIcEENS_9allocatorIcEEEEiEEPvEEEELi0ELb0EEC2B8ue170006ENS_16__value_init_tagE, symObjAddr: 0xD68, symBinAddr: 0x1000028E8, symSize: 0x2C }
  - { offsetInCU: 0x1B956, offset: 0x1B956, size: 0x8, addend: 0x0, symName: __ZNSt3__122__compressed_pair_elemINS_9allocatorINS_11__hash_nodeINS_17__hash_value_typeINS_12basic_stringIcNS_11char_traitsIcEENS1_IcEEEEiEEPvEEEELi1ELb1EEC2B8ue170006ENS_16__value_init_tagE, symObjAddr: 0xD94, symBinAddr: 0x100002914, symSize: 0x2C }
  - { offsetInCU: 0x1B98B, offset: 0x1B98B, size: 0x8, addend: 0x0, symName: __ZNSt3__116__hash_node_baseIPNS_11__hash_nodeINS_17__hash_value_typeINS_12basic_stringIcNS_11char_traitsIcEENS_9allocatorIcEEEEiEEPvEEEC1B8ue170006Ev, symObjAddr: 0xDC0, symBinAddr: 0x100002940, symSize: 0x2C }
  - { offsetInCU: 0x1B9B5, offset: 0x1B9B5, size: 0x8, addend: 0x0, symName: __ZNSt3__116__hash_node_baseIPNS_11__hash_nodeINS_17__hash_value_typeINS_12basic_stringIcNS_11char_traitsIcEENS_9allocatorIcEEEEiEEPvEEEC2B8ue170006Ev, symObjAddr: 0xDEC, symBinAddr: 0x10000296C, symSize: 0x18 }
  - { offsetInCU: 0x1B9DF, offset: 0x1B9DF, size: 0x8, addend: 0x0, symName: __ZNSt3__19allocatorINS_11__hash_nodeINS_17__hash_value_typeINS_12basic_stringIcNS_11char_traitsIcEENS0_IcEEEEiEEPvEEEC2B8ue170006Ev, symObjAddr: 0xE04, symBinAddr: 0x100002984, symSize: 0x2C }
  - { offsetInCU: 0x1BA09, offset: 0x1BA09, size: 0x8, addend: 0x0, symName: __ZNSt3__116__non_trivial_ifILb1ENS_9allocatorINS_11__hash_nodeINS_17__hash_value_typeINS_12basic_stringIcNS_11char_traitsIcEENS1_IcEEEEiEEPvEEEEEC2B8ue170006Ev, symObjAddr: 0xE30, symBinAddr: 0x1000029B0, symSize: 0x14 }
  - { offsetInCU: 0x1BA33, offset: 0x1BA33, size: 0x8, addend: 0x0, symName: __ZNSt3__117__compressed_pairImNS_22__unordered_map_hasherINS_12basic_stringIcNS_11char_traitsIcEENS_9allocatorIcEEEENS_17__hash_value_typeIS7_iEENS_4hashIS7_EENS_8equal_toIS7_EELb1EEEEC2B8ue170006IiNS_18__default_init_tagEEEOT_OT0_, symObjAddr: 0xE44, symBinAddr: 0x1000029C4, symSize: 0x40 }
  - { offsetInCU: 0x1BA8B, offset: 0x1BA8B, size: 0x8, addend: 0x0, symName: __ZNSt3__122__compressed_pair_elemINS_22__unordered_map_hasherINS_12basic_stringIcNS_11char_traitsIcEENS_9allocatorIcEEEENS_17__hash_value_typeIS7_iEENS_4hashIS7_EENS_8equal_toIS7_EELb1EEELi1ELb1EEC2B8ue170006ENS_18__default_init_tagE, symObjAddr: 0xE84, symBinAddr: 0x100002A04, symSize: 0x2C }
  - { offsetInCU: 0x1BAC0, offset: 0x1BAC0, size: 0x8, addend: 0x0, symName: __ZNSt3__122__unordered_map_hasherINS_12basic_stringIcNS_11char_traitsIcEENS_9allocatorIcEEEENS_17__hash_value_typeIS6_iEENS_4hashIS6_EENS_8equal_toIS6_EELb1EEC2B8ue170006Ev, symObjAddr: 0xEB0, symBinAddr: 0x100002A30, symSize: 0x14 }
  - { offsetInCU: 0x1BAEA, offset: 0x1BAEA, size: 0x8, addend: 0x0, symName: __ZNSt3__117__compressed_pairIfNS_21__unordered_map_equalINS_12basic_stringIcNS_11char_traitsIcEENS_9allocatorIcEEEENS_17__hash_value_typeIS7_iEENS_8equal_toIS7_EENS_4hashIS7_EELb1EEEEC2B8ue170006IfNS_18__default_init_tagEEEOT_OT0_, symObjAddr: 0xEC4, symBinAddr: 0x100002A44, symSize: 0x40 }
  - { offsetInCU: 0x1BB42, offset: 0x1BB42, size: 0x8, addend: 0x0, symName: __ZNSt3__122__compressed_pair_elemIfLi0ELb0EEC2B8ue170006IfvEEOT_, symObjAddr: 0xF04, symBinAddr: 0x100002A84, symSize: 0x24 }
  - { offsetInCU: 0x1BB84, offset: 0x1BB84, size: 0x8, addend: 0x0, symName: __ZNSt3__122__compressed_pair_elemINS_21__unordered_map_equalINS_12basic_stringIcNS_11char_traitsIcEENS_9allocatorIcEEEENS_17__hash_value_typeIS7_iEENS_8equal_toIS7_EENS_4hashIS7_EELb1EEELi1ELb1EEC2B8ue170006ENS_18__default_init_tagE, symObjAddr: 0xF28, symBinAddr: 0x100002AA8, symSize: 0x2C }
  - { offsetInCU: 0x1BBB9, offset: 0x1BBB9, size: 0x8, addend: 0x0, symName: __ZNSt3__121__unordered_map_equalINS_12basic_stringIcNS_11char_traitsIcEENS_9allocatorIcEEEENS_17__hash_value_typeIS6_iEENS_8equal_toIS6_EENS_4hashIS6_EELb1EEC2B8ue170006Ev, symObjAddr: 0xF54, symBinAddr: 0x100002AD4, symSize: 0x14 }
  - { offsetInCU: 0x1BBE3, offset: 0x1BBE3, size: 0x8, addend: 0x0, symName: __ZNSt3__16vectorIN5graph6vertexENS_9allocatorIS2_EEEC2B8ue170006Ev, symObjAddr: 0xF68, symBinAddr: 0x100002AE8, symSize: 0x4C }
  - { offsetInCU: 0x1BC12, offset: 0x1BC12, size: 0x8, addend: 0x0, symName: __ZNSt3__117__compressed_pairIPN5graph6vertexENS_9allocatorIS2_EEEC1B8ue170006IDnNS_18__default_init_tagEEEOT_OT0_, symObjAddr: 0xFB4, symBinAddr: 0x100002B34, symSize: 0x3C }
  - { offsetInCU: 0x1BC6A, offset: 0x1BC6A, size: 0x8, addend: 0x0, symName: __ZNSt3__117__compressed_pairIPN5graph6vertexENS_9allocatorIS2_EEEC2B8ue170006IDnNS_18__default_init_tagEEEOT_OT0_, symObjAddr: 0xFF0, symBinAddr: 0x100002B70, symSize: 0x40 }
  - { offsetInCU: 0x1BCC2, offset: 0x1BCC2, size: 0x8, addend: 0x0, symName: __ZNSt3__122__compressed_pair_elemIPN5graph6vertexELi0ELb0EEC2B8ue170006IDnvEEOT_, symObjAddr: 0x1030, symBinAddr: 0x100002BB0, symSize: 0x1C }
  - { offsetInCU: 0x1BD04, offset: 0x1BD04, size: 0x8, addend: 0x0, symName: __ZNSt3__122__compressed_pair_elemINS_9allocatorIN5graph6vertexEEELi1ELb1EEC2B8ue170006ENS_18__default_init_tagE, symObjAddr: 0x104C, symBinAddr: 0x100002BCC, symSize: 0x2C }
  - { offsetInCU: 0x1BD39, offset: 0x1BD39, size: 0x8, addend: 0x0, symName: __ZNSt3__19allocatorIN5graph6vertexEEC2B8ue170006Ev, symObjAddr: 0x1078, symBinAddr: 0x100002BF8, symSize: 0x2C }
  - { offsetInCU: 0x1BD63, offset: 0x1BD63, size: 0x8, addend: 0x0, symName: __ZNSt3__116__non_trivial_ifILb1ENS_9allocatorIN5graph6vertexEEEEC2B8ue170006Ev, symObjAddr: 0x10A4, symBinAddr: 0x100002C24, symSize: 0x14 }
  - { offsetInCU: 0x1BD8D, offset: 0x1BD8D, size: 0x8, addend: 0x0, symName: __ZNSt3__113unordered_setINS_12basic_stringIcNS_11char_traitsIcEENS_9allocatorIcEEEENS_4hashIS6_EENS_8equal_toIS6_EENS4_IS6_EEEC2B8ue170006Ev, symObjAddr: 0x10B8, symBinAddr: 0x100002C38, symSize: 0x2C }
  - { offsetInCU: 0x1BDB7, offset: 0x1BDB7, size: 0x8, addend: 0x0, symName: __ZNSt3__112__hash_tableINS_12basic_stringIcNS_11char_traitsIcEENS_9allocatorIcEEEENS_4hashIS6_EENS_8equal_toIS6_EENS4_IS6_EEEC1Ev, symObjAddr: 0x10E4, symBinAddr: 0x100002C64, symSize: 0x2C }
  - { offsetInCU: 0x1BDE3, offset: 0x1BDE3, size: 0x8, addend: 0x0, symName: __ZNSt3__112__hash_tableINS_12basic_stringIcNS_11char_traitsIcEENS_9allocatorIcEEEENS_4hashIS6_EENS_8equal_toIS6_EENS4_IS6_EEEC2Ev, symObjAddr: 0x1110, symBinAddr: 0x100002C90, symSize: 0x7C }
  - { offsetInCU: 0x1BE0F, offset: 0x1BE0F, size: 0x8, addend: 0x0, symName: __ZNSt3__110unique_ptrIA_PNS_16__hash_node_baseIPNS_11__hash_nodeINS_12basic_stringIcNS_11char_traitsIcEENS_9allocatorIcEEEEPvEEEENS_25__bucket_list_deallocatorINS6_ISD_EEEEEC1B8ue170006ILb1EvEEv, symObjAddr: 0x118C, symBinAddr: 0x100002D0C, symSize: 0x2C }
  - { offsetInCU: 0x1BE44, offset: 0x1BE44, size: 0x8, addend: 0x0, symName: __ZNSt3__117__compressed_pairINS_16__hash_node_baseIPNS_11__hash_nodeINS_12basic_stringIcNS_11char_traitsIcEENS_9allocatorIcEEEEPvEEEENS6_ISA_EEEC1B8ue170006ILb1EvEEv, symObjAddr: 0x11B8, symBinAddr: 0x100002D38, symSize: 0x2C }
  - { offsetInCU: 0x1BE79, offset: 0x1BE79, size: 0x8, addend: 0x0, symName: __ZNSt3__117__compressed_pairImNS_4hashINS_12basic_stringIcNS_11char_traitsIcEENS_9allocatorIcEEEEEEEC1B8ue170006IiNS_18__default_init_tagEEEOT_OT0_, symObjAddr: 0x11E4, symBinAddr: 0x100002D64, symSize: 0x3C }
  - { offsetInCU: 0x1BED1, offset: 0x1BED1, size: 0x8, addend: 0x0, symName: __ZNSt3__117__compressed_pairIfNS_8equal_toINS_12basic_stringIcNS_11char_traitsIcEENS_9allocatorIcEEEEEEEC1B8ue170006IfNS_18__default_init_tagEEEOT_OT0_, symObjAddr: 0x1220, symBinAddr: 0x100002DA0, symSize: 0x3C }
  - { offsetInCU: 0x1BF29, offset: 0x1BF29, size: 0x8, addend: 0x0, symName: __ZNSt3__110unique_ptrIA_PNS_16__hash_node_baseIPNS_11__hash_nodeINS_12basic_stringIcNS_11char_traitsIcEENS_9allocatorIcEEEEPvEEEENS_25__bucket_list_deallocatorINS6_ISD_EEEEEC2B8ue170006ILb1EvEEv, symObjAddr: 0x125C, symBinAddr: 0x100002DDC, symSize: 0x3C }
  - { offsetInCU: 0x1BF5E, offset: 0x1BF5E, size: 0x8, addend: 0x0, symName: __ZNSt3__117__compressed_pairIPPNS_16__hash_node_baseIPNS_11__hash_nodeINS_12basic_stringIcNS_11char_traitsIcEENS_9allocatorIcEEEEPvEEEENS_25__bucket_list_deallocatorINS6_ISD_EEEEEC1B8ue170006INS_16__value_init_tagESK_EEOT_OT0_, symObjAddr: 0x1298, symBinAddr: 0x100002E18, symSize: 0x3C }
  - { offsetInCU: 0x1BFB6, offset: 0x1BFB6, size: 0x8, addend: 0x0, symName: __ZNSt3__117__compressed_pairIPPNS_16__hash_node_baseIPNS_11__hash_nodeINS_12basic_stringIcNS_11char_traitsIcEENS_9allocatorIcEEEEPvEEEENS_25__bucket_list_deallocatorINS6_ISD_EEEEEC2B8ue170006INS_16__value_init_tagESK_EEOT_OT0_, symObjAddr: 0x12D4, symBinAddr: 0x100002E54, symSize: 0x40 }
  - { offsetInCU: 0x1C00E, offset: 0x1C00E, size: 0x8, addend: 0x0, symName: __ZNSt3__122__compressed_pair_elemIPPNS_16__hash_node_baseIPNS_11__hash_nodeINS_12basic_stringIcNS_11char_traitsIcEENS_9allocatorIcEEEEPvEEEELi0ELb0EEC2B8ue170006ENS_16__value_init_tagE, symObjAddr: 0x1314, symBinAddr: 0x100002E94, symSize: 0x18 }
  - { offsetInCU: 0x1C043, offset: 0x1C043, size: 0x8, addend: 0x0, symName: __ZNSt3__122__compressed_pair_elemINS_25__bucket_list_deallocatorINS_9allocatorIPNS_16__hash_node_baseIPNS_11__hash_nodeINS_12basic_stringIcNS_11char_traitsIcEENS2_IcEEEEPvEEEEEEEELi1ELb0EEC2B8ue170006ENS_16__value_init_tagE, symObjAddr: 0x132C, symBinAddr: 0x100002EAC, symSize: 0x2C }
  - { offsetInCU: 0x1C078, offset: 0x1C078, size: 0x8, addend: 0x0, symName: __ZNSt3__125__bucket_list_deallocatorINS_9allocatorIPNS_16__hash_node_baseIPNS_11__hash_nodeINS_12basic_stringIcNS_11char_traitsIcEENS1_IcEEEEPvEEEEEEEC1B8ue170006Ev, symObjAddr: 0x1358, symBinAddr: 0x100002ED8, symSize: 0x2C }
  - { offsetInCU: 0x1C0A2, offset: 0x1C0A2, size: 0x8, addend: 0x0, symName: __ZNSt3__125__bucket_list_deallocatorINS_9allocatorIPNS_16__hash_node_baseIPNS_11__hash_nodeINS_12basic_stringIcNS_11char_traitsIcEENS1_IcEEEEPvEEEEEEEC2B8ue170006Ev, symObjAddr: 0x1384, symBinAddr: 0x100002F04, symSize: 0x40 }
  - { offsetInCU: 0x1C0CC, offset: 0x1C0CC, size: 0x8, addend: 0x0, symName: __ZNSt3__117__compressed_pairImNS_9allocatorIPNS_16__hash_node_baseIPNS_11__hash_nodeINS_12basic_stringIcNS_11char_traitsIcEENS1_IcEEEEPvEEEEEEEC1B8ue170006IiNS_18__default_init_tagEEEOT_OT0_, symObjAddr: 0x13C4, symBinAddr: 0x100002F44, symSize: 0x3C }
  - { offsetInCU: 0x1C124, offset: 0x1C124, size: 0x8, addend: 0x0, symName: __ZNSt3__117__compressed_pairImNS_9allocatorIPNS_16__hash_node_baseIPNS_11__hash_nodeINS_12basic_stringIcNS_11char_traitsIcEENS1_IcEEEEPvEEEEEEEC2B8ue170006IiNS_18__default_init_tagEEEOT_OT0_, symObjAddr: 0x1400, symBinAddr: 0x100002F80, symSize: 0x40 }
  - { offsetInCU: 0x1C17C, offset: 0x1C17C, size: 0x8, addend: 0x0, symName: __ZNSt3__122__compressed_pair_elemINS_9allocatorIPNS_16__hash_node_baseIPNS_11__hash_nodeINS_12basic_stringIcNS_11char_traitsIcEENS1_IcEEEEPvEEEEEELi1ELb1EEC2B8ue170006ENS_18__default_init_tagE, symObjAddr: 0x1440, symBinAddr: 0x100002FC0, symSize: 0x2C }
  - { offsetInCU: 0x1C1B1, offset: 0x1C1B1, size: 0x8, addend: 0x0, symName: __ZNSt3__19allocatorIPNS_16__hash_node_baseIPNS_11__hash_nodeINS_12basic_stringIcNS_11char_traitsIcEENS0_IcEEEEPvEEEEEC2B8ue170006Ev, symObjAddr: 0x146C, symBinAddr: 0x100002FEC, symSize: 0x2C }
  - { offsetInCU: 0x1C1DB, offset: 0x1C1DB, size: 0x8, addend: 0x0, symName: __ZNSt3__116__non_trivial_ifILb1ENS_9allocatorIPNS_16__hash_node_baseIPNS_11__hash_nodeINS_12basic_stringIcNS_11char_traitsIcEENS1_IcEEEEPvEEEEEEEC2B8ue170006Ev, symObjAddr: 0x1498, symBinAddr: 0x100003018, symSize: 0x14 }
  - { offsetInCU: 0x1C205, offset: 0x1C205, size: 0x8, addend: 0x0, symName: __ZNSt3__117__compressed_pairINS_16__hash_node_baseIPNS_11__hash_nodeINS_12basic_stringIcNS_11char_traitsIcEENS_9allocatorIcEEEEPvEEEENS6_ISA_EEEC2B8ue170006ILb1EvEEv, symObjAddr: 0x14AC, symBinAddr: 0x10000302C, symSize: 0x34 }
  - { offsetInCU: 0x1C23A, offset: 0x1C23A, size: 0x8, addend: 0x0, symName: __ZNSt3__122__compressed_pair_elemINS_16__hash_node_baseIPNS_11__hash_nodeINS_12basic_stringIcNS_11char_traitsIcEENS_9allocatorIcEEEEPvEEEELi0ELb0EEC2B8ue170006ENS_16__value_init_tagE, symObjAddr: 0x14E0, symBinAddr: 0x100003060, symSize: 0x2C }
  - { offsetInCU: 0x1C26F, offset: 0x1C26F, size: 0x8, addend: 0x0, symName: __ZNSt3__122__compressed_pair_elemINS_9allocatorINS_11__hash_nodeINS_12basic_stringIcNS_11char_traitsIcEENS1_IcEEEEPvEEEELi1ELb1EEC2B8ue170006ENS_16__value_init_tagE, symObjAddr: 0x150C, symBinAddr: 0x10000308C, symSize: 0x2C }
  - { offsetInCU: 0x1C2A4, offset: 0x1C2A4, size: 0x8, addend: 0x0, symName: __ZNSt3__116__hash_node_baseIPNS_11__hash_nodeINS_12basic_stringIcNS_11char_traitsIcEENS_9allocatorIcEEEEPvEEEC1B8ue170006Ev, symObjAddr: 0x1538, symBinAddr: 0x1000030B8, symSize: 0x2C }
  - { offsetInCU: 0x1C2CE, offset: 0x1C2CE, size: 0x8, addend: 0x0, symName: __ZNSt3__116__hash_node_baseIPNS_11__hash_nodeINS_12basic_stringIcNS_11char_traitsIcEENS_9allocatorIcEEEEPvEEEC2B8ue170006Ev, symObjAddr: 0x1564, symBinAddr: 0x1000030E4, symSize: 0x18 }
  - { offsetInCU: 0x1C2F8, offset: 0x1C2F8, size: 0x8, addend: 0x0, symName: __ZNSt3__19allocatorINS_11__hash_nodeINS_12basic_stringIcNS_11char_traitsIcEENS0_IcEEEEPvEEEC2B8ue170006Ev, symObjAddr: 0x157C, symBinAddr: 0x1000030FC, symSize: 0x2C }
  - { offsetInCU: 0x1C322, offset: 0x1C322, size: 0x8, addend: 0x0, symName: __ZNSt3__116__non_trivial_ifILb1ENS_9allocatorINS_11__hash_nodeINS_12basic_stringIcNS_11char_traitsIcEENS1_IcEEEEPvEEEEEC2B8ue170006Ev, symObjAddr: 0x15A8, symBinAddr: 0x100003128, symSize: 0x14 }
  - { offsetInCU: 0x1C34C, offset: 0x1C34C, size: 0x8, addend: 0x0, symName: __ZNSt3__117__compressed_pairImNS_4hashINS_12basic_stringIcNS_11char_traitsIcEENS_9allocatorIcEEEEEEEC2B8ue170006IiNS_18__default_init_tagEEEOT_OT0_, symObjAddr: 0x15BC, symBinAddr: 0x10000313C, symSize: 0x40 }
  - { offsetInCU: 0x1C3A4, offset: 0x1C3A4, size: 0x8, addend: 0x0, symName: __ZNSt3__122__compressed_pair_elemINS_4hashINS_12basic_stringIcNS_11char_traitsIcEENS_9allocatorIcEEEEEELi1ELb1EEC2B8ue170006ENS_18__default_init_tagE, symObjAddr: 0x15FC, symBinAddr: 0x10000317C, symSize: 0x14 }
  - { offsetInCU: 0x1C3D9, offset: 0x1C3D9, size: 0x8, addend: 0x0, symName: __ZNSt3__117__compressed_pairIfNS_8equal_toINS_12basic_stringIcNS_11char_traitsIcEENS_9allocatorIcEEEEEEEC2B8ue170006IfNS_18__default_init_tagEEEOT_OT0_, symObjAddr: 0x1610, symBinAddr: 0x100003190, symSize: 0x40 }
  - { offsetInCU: 0x1C431, offset: 0x1C431, size: 0x8, addend: 0x0, symName: __ZNSt3__122__compressed_pair_elemINS_8equal_toINS_12basic_stringIcNS_11char_traitsIcEENS_9allocatorIcEEEEEELi1ELb1EEC2B8ue170006ENS_18__default_init_tagE, symObjAddr: 0x1650, symBinAddr: 0x1000031D0, symSize: 0x14 }
  - { offsetInCU: 0x1C4FE, offset: 0x1C4FE, size: 0x8, addend: 0x0, symName: __ZNSt3__114basic_ifstreamIcNS_11char_traitsIcEEEC1Ev, symObjAddr: 0x1664, symBinAddr: 0x1000031E4, symSize: 0xE8 }
  - { offsetInCU: 0x1C52A, offset: 0x1C52A, size: 0x8, addend: 0x0, symName: __ZNSt3__112basic_stringIcNS_11char_traitsIcEENS_9allocatorIcEEEC1B8ue170006Ev, symObjAddr: 0x174C, symBinAddr: 0x1000032CC, symSize: 0x2C }
  - { offsetInCU: 0x1C554, offset: 0x1C554, size: 0x8, addend: 0x0, symName: __ZNKSt3__114basic_ifstreamIcNS_11char_traitsIcEEE7is_openEv, symObjAddr: 0x1778, symBinAddr: 0x1000032F8, symSize: 0x2C }
  - { offsetInCU: 0x1C57C, offset: 0x1C57C, size: 0x8, addend: 0x0, symName: __ZNKSt3__19basic_iosIcNS_11char_traitsIcEEEcvbB8ue170006Ev, symObjAddr: 0x1800, symBinAddr: 0x100003380, symSize: 0x2C }
  - { offsetInCU: 0x1C5A2, offset: 0x1C5A2, size: 0x8, addend: 0x0, symName: __ZNKSt3__112basic_stringIcNS_11char_traitsIcEENS_9allocatorIcEEE6lengthB8ue170006Ev, symObjAddr: 0x182C, symBinAddr: 0x1000033AC, symSize: 0x24 }
  - { offsetInCU: 0x1C5C8, offset: 0x1C5C8, size: 0x8, addend: 0x0, symName: __ZN5graph8add_edgeERKNSt3__112basic_stringIcNS0_11char_traitsIcEENS0_9allocatorIcEEEE, symObjAddr: 0x1850, symBinAddr: 0x1000033D0, symSize: 0x2F0 }
  - { offsetInCU: 0x1C65D, offset: 0x1C65D, size: 0x8, addend: 0x0, symName: __ZNSt3__114basic_ifstreamIcNS_11char_traitsIcEEE5closeEv, symObjAddr: 0x1B8C, symBinAddr: 0x10000370C, symSize: 0x58 }
  - { offsetInCU: 0x1C68A, offset: 0x1C68A, size: 0x8, addend: 0x0, symName: __ZNSt3__114basic_ifstreamIcNS_11char_traitsIcEEED1Ev, symObjAddr: 0x1BE4, symBinAddr: 0x100003764, symSize: 0x40 }
  - { offsetInCU: 0x1C6B7, offset: 0x1C6B7, size: 0x8, addend: 0x0, symName: __ZNSt3__19basic_iosIcNS_11char_traitsIcEEEC2B8ue170006Ev, symObjAddr: 0x1C24, symBinAddr: 0x1000037A4, symSize: 0x44 }
  - { offsetInCU: 0x1C6E1, offset: 0x1C6E1, size: 0x8, addend: 0x0, symName: __ZNSt3__113basic_istreamIcNS_11char_traitsIcEEEC2B8ue170006EPNS_15basic_streambufIcS2_EE, symObjAddr: 0x1C68, symBinAddr: 0x1000037E8, symSize: 0x64 }
  - { offsetInCU: 0x1C726, offset: 0x1C726, size: 0x8, addend: 0x0, symName: __ZNSt3__18ios_baseC2B8ue170006Ev, symObjAddr: 0x1CCC, symBinAddr: 0x10000384C, symSize: 0x24 }
  - { offsetInCU: 0x1C750, offset: 0x1C750, size: 0x8, addend: 0x0, symName: __ZNSt3__19basic_iosIcNS_11char_traitsIcEEE4initB8ue170006EPNS_15basic_streambufIcS2_EE, symObjAddr: 0x1CF0, symBinAddr: 0x100003870, symSize: 0x44 }
  - { offsetInCU: 0x1C787, offset: 0x1C787, size: 0x8, addend: 0x0, symName: __ZNSt3__111char_traitsIcE3eofB8ue170006Ev, symObjAddr: 0x1D34, symBinAddr: 0x1000038B4, symSize: 0x8 }
  - { offsetInCU: 0x1C79B, offset: 0x1C79B, size: 0x8, addend: 0x0, symName: __ZNSt3__112basic_stringIcNS_11char_traitsIcEENS_9allocatorIcEEEC2B8ue170006Ev, symObjAddr: 0x1D3C, symBinAddr: 0x1000038BC, symSize: 0x48 }
  - { offsetInCU: 0x1C7C5, offset: 0x1C7C5, size: 0x8, addend: 0x0, symName: __ZNSt3__117__compressed_pairINS_12basic_stringIcNS_11char_traitsIcEENS_9allocatorIcEEE5__repES5_EC1B8ue170006INS_18__default_init_tagESA_EEOT_OT0_, symObjAddr: 0x1D84, symBinAddr: 0x100003904, symSize: 0x3C }
  - { offsetInCU: 0x1C81D, offset: 0x1C81D, size: 0x8, addend: 0x0, symName: __ZNSt3__112basic_stringIcNS_11char_traitsIcEENS_9allocatorIcEEE14__default_initB8ue170006Ev, symObjAddr: 0x1DC0, symBinAddr: 0x100003940, symSize: 0x40 }
  - { offsetInCU: 0x1C843, offset: 0x1C843, size: 0x8, addend: 0x0, symName: __ZNSt3__117__compressed_pairINS_12basic_stringIcNS_11char_traitsIcEENS_9allocatorIcEEE5__repES5_EC2B8ue170006INS_18__default_init_tagESA_EEOT_OT0_, symObjAddr: 0x1E00, symBinAddr: 0x100003980, symSize: 0x3C }
  - { offsetInCU: 0x1C89B, offset: 0x1C89B, size: 0x8, addend: 0x0, symName: __ZNSt3__122__compressed_pair_elemINS_12basic_stringIcNS_11char_traitsIcEENS_9allocatorIcEEE5__repELi0ELb0EEC2B8ue170006ENS_18__default_init_tagE, symObjAddr: 0x1E3C, symBinAddr: 0x1000039BC, symSize: 0x14 }
  - { offsetInCU: 0x1C8D0, offset: 0x1C8D0, size: 0x8, addend: 0x0, symName: __ZNSt3__122__compressed_pair_elemINS_9allocatorIcEELi1ELb1EEC2B8ue170006ENS_18__default_init_tagE, symObjAddr: 0x1E50, symBinAddr: 0x1000039D0, symSize: 0x2C }
  - { offsetInCU: 0x1C905, offset: 0x1C905, size: 0x8, addend: 0x0, symName: __ZNSt3__19allocatorIcEC2B8ue170006Ev, symObjAddr: 0x1E7C, symBinAddr: 0x1000039FC, symSize: 0x2C }
  - { offsetInCU: 0x1C92F, offset: 0x1C92F, size: 0x8, addend: 0x0, symName: __ZNSt3__116__non_trivial_ifILb1ENS_9allocatorIcEEEC2B8ue170006Ev, symObjAddr: 0x1EA8, symBinAddr: 0x100003A28, symSize: 0x14 }
  - { offsetInCU: 0x1C959, offset: 0x1C959, size: 0x8, addend: 0x0, symName: __ZNSt3__117__compressed_pairINS_12basic_stringIcNS_11char_traitsIcEENS_9allocatorIcEEE5__repES5_E5firstB8ue170006Ev, symObjAddr: 0x1EBC, symBinAddr: 0x100003A3C, symSize: 0x24 }
  - { offsetInCU: 0x1C97F, offset: 0x1C97F, size: 0x8, addend: 0x0, symName: __ZNSt3__122__compressed_pair_elemINS_12basic_stringIcNS_11char_traitsIcEENS_9allocatorIcEEE5__repELi0ELb0EE5__getB8ue170006Ev, symObjAddr: 0x1EE0, symBinAddr: 0x100003A60, symSize: 0x14 }
  - { offsetInCU: 0x1C9A5, offset: 0x1C9A5, size: 0x8, addend: 0x0, symName: __ZNKSt3__113basic_filebufIcNS_11char_traitsIcEEE7is_openEv, symObjAddr: 0x1EF4, symBinAddr: 0x100003A74, symSize: 0x24 }
  - { offsetInCU: 0x1C9CD, offset: 0x1C9CD, size: 0x8, addend: 0x0, symName: __ZNKSt3__19basic_iosIcNS_11char_traitsIcEEE5widenB8ue170006Ec, symObjAddr: 0x2150, symBinAddr: 0x100003CD0, symSize: 0x84 }
  - { offsetInCU: 0x1CA22, offset: 0x1CA22, size: 0x8, addend: 0x0, symName: __ZNKSt3__113basic_istreamIcNS_11char_traitsIcEEE6sentrycvbB8ue170006Ev, symObjAddr: 0x21D4, symBinAddr: 0x100003D54, symSize: 0x1C }
  - { offsetInCU: 0x1CA48, offset: 0x1CA48, size: 0x8, addend: 0x0, symName: __ZNSt3__112basic_stringIcNS_11char_traitsIcEENS_9allocatorIcEEE5clearB8ue170006Ev, symObjAddr: 0x21F0, symBinAddr: 0x100003D70, symSize: 0x78 }
  - { offsetInCU: 0x1CA70, offset: 0x1CA70, size: 0x8, addend: 0x0, symName: __ZNKSt3__19basic_iosIcNS_11char_traitsIcEEE5rdbufB8ue170006Ev, symObjAddr: 0x2268, symBinAddr: 0x100003DE8, symSize: 0x24 }
  - { offsetInCU: 0x1CA98, offset: 0x1CA98, size: 0x8, addend: 0x0, symName: __ZNSt3__115basic_streambufIcNS_11char_traitsIcEEE6sbumpcB8ue170006Ev, symObjAddr: 0x228C, symBinAddr: 0x100003E0C, symSize: 0x78 }
  - { offsetInCU: 0x1CABE, offset: 0x1CABE, size: 0x8, addend: 0x0, symName: __ZNSt3__111char_traitsIcE11eq_int_typeB8ue170006Eii, symObjAddr: 0x2304, symBinAddr: 0x100003E84, symSize: 0x28 }
  - { offsetInCU: 0x1CAF1, offset: 0x1CAF1, size: 0x8, addend: 0x0, symName: __ZNSt3__111char_traitsIcE12to_char_typeB8ue170006Ei, symObjAddr: 0x232C, symBinAddr: 0x100003EAC, symSize: 0x18 }
  - { offsetInCU: 0x1CB14, offset: 0x1CB14, size: 0x8, addend: 0x0, symName: __ZNSt3__111char_traitsIcE2eqEcc, symObjAddr: 0x2344, symBinAddr: 0x100003EC4, symSize: 0x28 }
  - { offsetInCU: 0x1CB45, offset: 0x1CB45, size: 0x8, addend: 0x0, symName: __ZNKSt3__112basic_stringIcNS_11char_traitsIcEENS_9allocatorIcEEE4sizeB8ue170006Ev, symObjAddr: 0x236C, symBinAddr: 0x100003EEC, symSize: 0x54 }
  - { offsetInCU: 0x1CB6B, offset: 0x1CB6B, size: 0x8, addend: 0x0, symName: __ZNKSt3__112basic_stringIcNS_11char_traitsIcEENS_9allocatorIcEEE8max_sizeB8ue170006Ev, symObjAddr: 0x23C0, symBinAddr: 0x100003F40, symSize: 0xAC }
  - { offsetInCU: 0x1CBBE, offset: 0x1CBBE, size: 0x8, addend: 0x0, symName: __ZNSt3__18ios_base18__setstate_nothrowB8ue170006Ej, symObjAddr: 0x246C, symBinAddr: 0x100003FEC, symSize: 0x64 }
  - { offsetInCU: 0x1CBF3, offset: 0x1CBF3, size: 0x8, addend: 0x0, symName: __ZNKSt3__19basic_iosIcNS_11char_traitsIcEEE10exceptionsB8ue170006Ev, symObjAddr: 0x24D0, symBinAddr: 0x100004050, symSize: 0x24 }
  - { offsetInCU: 0x1CC19, offset: 0x1CC19, size: 0x8, addend: 0x0, symName: __ZNSt3__19basic_iosIcNS_11char_traitsIcEEE8setstateB8ue170006Ej, symObjAddr: 0x24F4, symBinAddr: 0x100004074, symSize: 0x2C }
  - { offsetInCU: 0x1CC4E, offset: 0x1CC4E, size: 0x8, addend: 0x0, symName: __ZNKSt3__112basic_stringIcNS_11char_traitsIcEENS_9allocatorIcEEE9__is_longB8ue170006Ev, symObjAddr: 0x2520, symBinAddr: 0x1000040A0, symSize: 0x38 }
  - { offsetInCU: 0x1CC74, offset: 0x1CC74, size: 0x8, addend: 0x0, symName: __ZNSt3__111char_traitsIcE6assignB8ue170006ERcRKc, symObjAddr: 0x2558, symBinAddr: 0x1000040D8, symSize: 0x24 }
  - { offsetInCU: 0x1CCA5, offset: 0x1CCA5, size: 0x8, addend: 0x0, symName: __ZNSt3__112basic_stringIcNS_11char_traitsIcEENS_9allocatorIcEEE18__get_long_pointerB8ue170006Ev, symObjAddr: 0x257C, symBinAddr: 0x1000040FC, symSize: 0x28 }
  - { offsetInCU: 0x1CCCB, offset: 0x1CCCB, size: 0x8, addend: 0x0, symName: __ZNSt3__112basic_stringIcNS_11char_traitsIcEENS_9allocatorIcEEE15__set_long_sizeB8ue170006Em, symObjAddr: 0x25A4, symBinAddr: 0x100004124, symSize: 0x38 }
  - { offsetInCU: 0x1CD00, offset: 0x1CD00, size: 0x8, addend: 0x0, symName: __ZNSt3__112basic_stringIcNS_11char_traitsIcEENS_9allocatorIcEEE19__get_short_pointerB8ue170006Ev, symObjAddr: 0x25DC, symBinAddr: 0x10000415C, symSize: 0x28 }
  - { offsetInCU: 0x1CD26, offset: 0x1CD26, size: 0x8, addend: 0x0, symName: __ZNSt3__112basic_stringIcNS_11char_traitsIcEENS_9allocatorIcEEE16__set_short_sizeB8ue170006Em, symObjAddr: 0x2604, symBinAddr: 0x100004184, symSize: 0x78 }
  - { offsetInCU: 0x1CD5B, offset: 0x1CD5B, size: 0x8, addend: 0x0, symName: __ZNKSt3__117__compressed_pairINS_12basic_stringIcNS_11char_traitsIcEENS_9allocatorIcEEE5__repES5_E5firstB8ue170006Ev, symObjAddr: 0x267C, symBinAddr: 0x1000041FC, symSize: 0x24 }
  - { offsetInCU: 0x1CD81, offset: 0x1CD81, size: 0x8, addend: 0x0, symName: __ZNKSt3__122__compressed_pair_elemINS_12basic_stringIcNS_11char_traitsIcEENS_9allocatorIcEEE5__repELi0ELb0EE5__getB8ue170006Ev, symObjAddr: 0x26A0, symBinAddr: 0x100004220, symSize: 0x14 }
  - { offsetInCU: 0x1CDA7, offset: 0x1CDA7, size: 0x8, addend: 0x0, symName: __ZNSt3__114pointer_traitsIPcE10pointer_toB8ue170006ERc, symObjAddr: 0x26B4, symBinAddr: 0x100004234, symSize: 0x14 }
  - { offsetInCU: 0x1CDCA, offset: 0x1CDCA, size: 0x8, addend: 0x0, symName: __ZNKSt3__18ios_base5rdbufB8ue170006Ev, symObjAddr: 0x26C8, symBinAddr: 0x100004248, symSize: 0x18 }
  - { offsetInCU: 0x1CDF0, offset: 0x1CDF0, size: 0x8, addend: 0x0, symName: __ZNSt3__111char_traitsIcE11to_int_typeB8ue170006Ec, symObjAddr: 0x26E0, symBinAddr: 0x100004260, symSize: 0x14 }
  - { offsetInCU: 0x1CE14, offset: 0x1CE14, size: 0x8, addend: 0x0, symName: __ZNKSt3__112basic_stringIcNS_11char_traitsIcEENS_9allocatorIcEEE15__get_long_sizeB8ue170006Ev, symObjAddr: 0x26F4, symBinAddr: 0x100004274, symSize: 0x28 }
  - { offsetInCU: 0x1CE3A, offset: 0x1CE3A, size: 0x8, addend: 0x0, symName: __ZNKSt3__112basic_stringIcNS_11char_traitsIcEENS_9allocatorIcEEE16__get_short_sizeB8ue170006Ev, symObjAddr: 0x271C, symBinAddr: 0x10000429C, symSize: 0x34 }
  - { offsetInCU: 0x1CE6A, offset: 0x1CE6A, size: 0x8, addend: 0x0, symName: __ZNSt3__116allocator_traitsINS_9allocatorIcEEE8max_sizeB8ue170006IS2_vEEmRKS2_, symObjAddr: 0x2750, symBinAddr: 0x1000042D0, symSize: 0x24 }
  - { offsetInCU: 0x1CE98, offset: 0x1CE98, size: 0x8, addend: 0x0, symName: __ZNKSt3__112basic_stringIcNS_11char_traitsIcEENS_9allocatorIcEEE7__allocB8ue170006Ev, symObjAddr: 0x2774, symBinAddr: 0x1000042F4, symSize: 0x24 }
  - { offsetInCU: 0x1CEBE, offset: 0x1CEBE, size: 0x8, addend: 0x0, symName: __ZNSt3__114numeric_limitsImE3maxB8ue170006Ev, symObjAddr: 0x2798, symBinAddr: 0x100004318, symSize: 0x14 }
  - { offsetInCU: 0x1CED2, offset: 0x1CED2, size: 0x8, addend: 0x0, symName: __ZNKSt3__19allocatorIcE8max_sizeB8ue170006Ev, symObjAddr: 0x27AC, symBinAddr: 0x10000432C, symSize: 0x14 }
  - { offsetInCU: 0x1CEF8, offset: 0x1CEF8, size: 0x8, addend: 0x0, symName: __ZNKSt3__117__compressed_pairINS_12basic_stringIcNS_11char_traitsIcEENS_9allocatorIcEEE5__repES5_E6secondB8ue170006Ev, symObjAddr: 0x27C0, symBinAddr: 0x100004340, symSize: 0x24 }
  - { offsetInCU: 0x1CF1E, offset: 0x1CF1E, size: 0x8, addend: 0x0, symName: __ZNKSt3__122__compressed_pair_elemINS_9allocatorIcEELi1ELb1EE5__getB8ue170006Ev, symObjAddr: 0x27E4, symBinAddr: 0x100004364, symSize: 0x14 }
  - { offsetInCU: 0x1CF44, offset: 0x1CF44, size: 0x8, addend: 0x0, symName: __ZNSt3__123__libcpp_numeric_limitsImLb1EE3maxB8ue170006Ev, symObjAddr: 0x27F8, symBinAddr: 0x100004378, symSize: 0x8 }
  - { offsetInCU: 0x1CF58, offset: 0x1CF58, size: 0x8, addend: 0x0, symName: __ZNKSt3__18ios_base10exceptionsB8ue170006Ev, symObjAddr: 0x2800, symBinAddr: 0x100004380, symSize: 0x18 }
  - { offsetInCU: 0x1CF80, offset: 0x1CF80, size: 0x8, addend: 0x0, symName: __ZNSt3__18ios_base8setstateB8ue170006Ej, symObjAddr: 0x2818, symBinAddr: 0x100004398, symSize: 0x34 }
  - { offsetInCU: 0x1CFDF, offset: 0x1CFDF, size: 0x8, addend: 0x0, symName: __ZNKSt3__15ctypeIcE5widenB8ue170006Ec, symObjAddr: 0x2878, symBinAddr: 0x1000043F8, symSize: 0x38 }
  - { offsetInCU: 0x1D014, offset: 0x1D014, size: 0x8, addend: 0x0, symName: __ZNKSt3__19basic_iosIcNS_11char_traitsIcEEE4failB8ue170006Ev, symObjAddr: 0x28B0, symBinAddr: 0x100004430, symSize: 0x28 }
  - { offsetInCU: 0x1D03A, offset: 0x1D03A, size: 0x8, addend: 0x0, symName: __ZNKSt3__18ios_base4failB8ue170006Ev, symObjAddr: 0x28D8, symBinAddr: 0x100004458, symSize: 0x28 }
  - { offsetInCU: 0x1D062, offset: 0x1D062, size: 0x8, addend: 0x0, symName: __ZNSt3__118basic_stringstreamIcNS_11char_traitsIcEENS_9allocatorIcEEEC1B8ue170006ERKNS_12basic_stringIcS2_S4_EEj, symObjAddr: 0x2900, symBinAddr: 0x100004480, symSize: 0x110 }
  - { offsetInCU: 0x1D0AA, offset: 0x1D0AA, size: 0x8, addend: 0x0, symName: __ZNKSt3__19basic_iosIcNS_11char_traitsIcEEEntB8ue170006Ev, symObjAddr: 0x2D28, symBinAddr: 0x1000048A8, symSize: 0x28 }
  - { offsetInCU: 0x1D0D5, offset: 0x1D0D5, size: 0x8, addend: 0x0, symName: __ZNSt3__118basic_stringstreamIcNS_11char_traitsIcEENS_9allocatorIcEEED1Ev, symObjAddr: 0x2D80, symBinAddr: 0x100004900, symSize: 0x40 }
  - { offsetInCU: 0x1D102, offset: 0x1D102, size: 0x8, addend: 0x0, symName: __ZN5graph8add_edgeERKNSt3__112basic_stringIcNS0_11char_traitsIcEENS0_9allocatorIcEEEES8_d, symObjAddr: 0x2DC0, symBinAddr: 0x100004940, symSize: 0x2A0 }
  - { offsetInCU: 0x1D183, offset: 0x1D183, size: 0x8, addend: 0x0, symName: __ZNSt3__114basic_iostreamIcNS_11char_traitsIcEEEC2B8ue170006EPNS_15basic_streambufIcS2_EE, symObjAddr: 0x3060, symBinAddr: 0x100004BE0, symSize: 0xAC }
  - { offsetInCU: 0x1D1C9, offset: 0x1D1C9, size: 0x8, addend: 0x0, symName: __ZNSt3__115basic_stringbufIcNS_11char_traitsIcEENS_9allocatorIcEEEC1B8ue170006ERKNS_12basic_stringIcS2_S4_EEj, symObjAddr: 0x310C, symBinAddr: 0x100004C8C, symSize: 0x3C }
  - { offsetInCU: 0x1D211, offset: 0x1D211, size: 0x8, addend: 0x0, symName: __ZNSt3__113basic_ostreamIcNS_11char_traitsIcEEEC2B8ue170006Ev, symObjAddr: 0x3148, symBinAddr: 0x100004CC8, symSize: 0x34 }
  - { offsetInCU: 0x1D248, offset: 0x1D248, size: 0x8, addend: 0x0, symName: __ZNSt3__115basic_stringbufIcNS_11char_traitsIcEENS_9allocatorIcEEEC2B8ue170006ERKNS_12basic_stringIcS2_S4_EEj, symObjAddr: 0x317C, symBinAddr: 0x100004CFC, symSize: 0xB4 }
  - { offsetInCU: 0x1D290, offset: 0x1D290, size: 0x8, addend: 0x0, symName: __ZNKSt3__112basic_stringIcNS_11char_traitsIcEENS_9allocatorIcEEE13get_allocatorB8ue170006Ev, symObjAddr: 0x3230, symBinAddr: 0x100004DB0, symSize: 0x24 }
  - { offsetInCU: 0x1D2B6, offset: 0x1D2B6, size: 0x8, addend: 0x0, symName: __ZNSt3__112basic_stringIcNS_11char_traitsIcEENS_9allocatorIcEEEC1B8ue170006ERKS4_, symObjAddr: 0x3254, symBinAddr: 0x100004DD4, symSize: 0x34 }
  - { offsetInCU: 0x1D2EF, offset: 0x1D2EF, size: 0x8, addend: 0x0, symName: __ZNSt3__112basic_stringIcNS_11char_traitsIcEENS_9allocatorIcEEEC2B8ue170006ERKS4_, symObjAddr: 0x3288, symBinAddr: 0x100004E08, symSize: 0x48 }
  - { offsetInCU: 0x1D328, offset: 0x1D328, size: 0x8, addend: 0x0, symName: __ZNSt3__117__compressed_pairINS_12basic_stringIcNS_11char_traitsIcEENS_9allocatorIcEEE5__repES5_EC1B8ue170006INS_18__default_init_tagERKS5_EEOT_OT0_, symObjAddr: 0x32D0, symBinAddr: 0x100004E50, symSize: 0x3C }
  - { offsetInCU: 0x1D380, offset: 0x1D380, size: 0x8, addend: 0x0, symName: __ZNSt3__117__compressed_pairINS_12basic_stringIcNS_11char_traitsIcEENS_9allocatorIcEEE5__repES5_EC2B8ue170006INS_18__default_init_tagERKS5_EEOT_OT0_, symObjAddr: 0x330C, symBinAddr: 0x100004E8C, symSize: 0x40 }
  - { offsetInCU: 0x1D3D8, offset: 0x1D3D8, size: 0x8, addend: 0x0, symName: __ZNSt3__122__compressed_pair_elemINS_9allocatorIcEELi1ELb1EEC2B8ue170006IRKS2_vEEOT_, symObjAddr: 0x334C, symBinAddr: 0x100004ECC, symSize: 0x18 }
  - { offsetInCU: 0x1D41A, offset: 0x1D41A, size: 0x8, addend: 0x0, symName: __ZNKSt3__18ios_base5widthB8ue170006Ev, symObjAddr: 0x3364, symBinAddr: 0x100004EE4, symSize: 0x18 }
  - { offsetInCU: 0x1D442, offset: 0x1D442, size: 0x8, addend: 0x0, symName: __ZNSt3__114numeric_limitsIlE3maxB8ue170006Ev, symObjAddr: 0x337C, symBinAddr: 0x100004EFC, symSize: 0x14 }
  - { offsetInCU: 0x1D456, offset: 0x1D456, size: 0x8, addend: 0x0, symName: __ZNSt3__115basic_streambufIcNS_11char_traitsIcEEE5sgetcB8ue170006Ev, symObjAddr: 0x3390, symBinAddr: 0x100004F10, symSize: 0x70 }
  - { offsetInCU: 0x1D47C, offset: 0x1D47C, size: 0x8, addend: 0x0, symName: __ZNKSt3__15ctypeIcE2isB8ue170006Ejc, symObjAddr: 0x3400, symBinAddr: 0x100004F80, symSize: 0x7C }
  - { offsetInCU: 0x1D4C0, offset: 0x1D4C0, size: 0x8, addend: 0x0, symName: __ZNSt3__18ios_base5widthB8ue170006El, symObjAddr: 0x347C, symBinAddr: 0x100004FFC, symSize: 0x2C }
  - { offsetInCU: 0x1D506, offset: 0x1D506, size: 0x8, addend: 0x0, symName: __ZNSt3__123__libcpp_numeric_limitsIlLb1EE3maxB8ue170006Ev, symObjAddr: 0x34A8, symBinAddr: 0x100005028, symSize: 0x8 }
  - { offsetInCU: 0x1D519, offset: 0x1D519, size: 0x8, addend: 0x0, symName: __Z7isasciii, symObjAddr: 0x34B0, symBinAddr: 0x100005030, symSize: 0x24 }
  - { offsetInCU: 0x1D546, offset: 0x1D546, size: 0x8, addend: 0x0, symName: __ZNSt3__118basic_stringstreamIcNS_11char_traitsIcEENS_9allocatorIcEEED2Ev, symObjAddr: 0x34D4, symBinAddr: 0x100005054, symSize: 0x6C }
  - { offsetInCU: 0x1D580, offset: 0x1D580, size: 0x8, addend: 0x0, symName: __ZThn16_NSt3__118basic_stringstreamIcNS_11char_traitsIcEENS_9allocatorIcEEED1Ev, symObjAddr: 0x3540, symBinAddr: 0x1000050C0, symSize: 0x1C }
  - { offsetInCU: 0x1D597, offset: 0x1D597, size: 0x8, addend: 0x0, symName: __ZTv0_n24_NSt3__118basic_stringstreamIcNS_11char_traitsIcEENS_9allocatorIcEEED1Ev, symObjAddr: 0x355C, symBinAddr: 0x1000050DC, symSize: 0x28 }
  - { offsetInCU: 0x1D5B3, offset: 0x1D5B3, size: 0x8, addend: 0x0, symName: __ZNSt3__115basic_stringbufIcNS_11char_traitsIcEENS_9allocatorIcEEED1Ev, symObjAddr: 0x3584, symBinAddr: 0x100005104, symSize: 0x2C }
  - { offsetInCU: 0x1D5E0, offset: 0x1D5E0, size: 0x8, addend: 0x0, symName: __ZNSt3__115basic_stringbufIcNS_11char_traitsIcEENS_9allocatorIcEEED2Ev, symObjAddr: 0x35B0, symBinAddr: 0x100005130, symSize: 0x48 }
  - { offsetInCU: 0x1D60D, offset: 0x1D60D, size: 0x8, addend: 0x0, symName: __ZN5graph11edge_stringERKNSt3__112basic_stringIcNS0_11char_traitsIcEENS0_9allocatorIcEEEES8_, symObjAddr: 0x35F8, symBinAddr: 0x100005178, symSize: 0x7C }
  - { offsetInCU: 0x1D63E, offset: 0x1D63E, size: 0x8, addend: 0x0, symName: __ZNKSt3__113unordered_setINS_12basic_stringIcNS_11char_traitsIcEENS_9allocatorIcEEEENS_4hashIS6_EENS_8equal_toIS6_EENS4_IS6_EEE5countB8ue170006ERKS6_, symObjAddr: 0x3674, symBinAddr: 0x1000051F4, symSize: 0x2C }
  - { offsetInCU: 0x1D673, offset: 0x1D673, size: 0x8, addend: 0x0, symName: __ZNSt3__113unordered_setINS_12basic_stringIcNS_11char_traitsIcEENS_9allocatorIcEEEENS_4hashIS6_EENS_8equal_toIS6_EENS4_IS6_EEE6insertB8ue170006ERKS6_, symObjAddr: 0x36A0, symBinAddr: 0x100005220, symSize: 0x4C }
  - { offsetInCU: 0x1D6A8, offset: 0x1D6A8, size: 0x8, addend: 0x0, symName: __ZNKSt3__113unordered_mapINS_12basic_stringIcNS_11char_traitsIcEENS_9allocatorIcEEEEiNS_4hashIS6_EENS_8equal_toIS6_EENS4_INS_4pairIKS6_iEEEEE5countB8ue170006ERSC_, symObjAddr: 0x36EC, symBinAddr: 0x10000526C, symSize: 0x2C }
  - { offsetInCU: 0x1D6DD, offset: 0x1D6DD, size: 0x8, addend: 0x0, symName: __ZN5graph10add_vertexERKNSt3__112basic_stringIcNS0_11char_traitsIcEENS0_9allocatorIcEEEE, symObjAddr: 0x3718, symBinAddr: 0x100005298, symSize: 0xE8 }
  - { offsetInCU: 0x1D71F, offset: 0x1D71F, size: 0x8, addend: 0x0, symName: __ZNSt3__113unordered_mapINS_12basic_stringIcNS_11char_traitsIcEENS_9allocatorIcEEEEiNS_4hashIS6_EENS_8equal_toIS6_EENS4_INS_4pairIKS6_iEEEEEixERSC_, symObjAddr: 0x3800, symBinAddr: 0x100005380, symSize: 0x80 }
  - { offsetInCU: 0x1D756, offset: 0x1D756, size: 0x8, addend: 0x0, symName: __ZNSt3__16vectorIN5graph6vertexENS_9allocatorIS2_EEEixB8ue170006Em, symObjAddr: 0x3880, symBinAddr: 0x100005400, symSize: 0x2C }
  - { offsetInCU: 0x1D78D, offset: 0x1D78D, size: 0x8, addend: 0x0, symName: __ZNSt3__16vectorIN5graph4edgeENS_9allocatorIS2_EEE9push_backB8ue170006EOS2_, symObjAddr: 0x38AC, symBinAddr: 0x10000542C, symSize: 0x6C }
  - { offsetInCU: 0x1D7C4, offset: 0x1D7C4, size: 0x8, addend: 0x0, symName: __ZN5graph4edgeC1Eid, symObjAddr: 0x3918, symBinAddr: 0x100005498, symSize: 0x3C }
  - { offsetInCU: 0x1D80A, offset: 0x1D80A, size: 0x8, addend: 0x0, symName: __ZNSt3__112basic_stringIcNS_11char_traitsIcEENS_9allocatorIcEEE6appendB8ue170006ERKS5_, symObjAddr: 0x3AB0, symBinAddr: 0x100005630, symSize: 0x4C }
  - { offsetInCU: 0x1D83F, offset: 0x1D83F, size: 0x8, addend: 0x0, symName: __ZNSt3__112basic_stringIcNS_11char_traitsIcEENS_9allocatorIcEEEC1B8ue170006EOS5_, symObjAddr: 0x3AFC, symBinAddr: 0x10000567C, symSize: 0x34 }
  - { offsetInCU: 0x1D878, offset: 0x1D878, size: 0x8, addend: 0x0, symName: __ZNKSt3__112basic_stringIcNS_11char_traitsIcEENS_9allocatorIcEEE4dataB8ue170006Ev, symObjAddr: 0x3B30, symBinAddr: 0x1000056B0, symSize: 0x28 }
  - { offsetInCU: 0x1D89E, offset: 0x1D89E, size: 0x8, addend: 0x0, symName: __ZNKSt3__112basic_stringIcNS_11char_traitsIcEENS_9allocatorIcEEE13__get_pointerB8ue170006Ev, symObjAddr: 0x3B6C, symBinAddr: 0x1000056EC, symSize: 0x54 }
  - { offsetInCU: 0x1D8C4, offset: 0x1D8C4, size: 0x8, addend: 0x0, symName: __ZNKSt3__112basic_stringIcNS_11char_traitsIcEENS_9allocatorIcEEE18__get_long_pointerB8ue170006Ev, symObjAddr: 0x3BC0, symBinAddr: 0x100005740, symSize: 0x28 }
  - { offsetInCU: 0x1D8EA, offset: 0x1D8EA, size: 0x8, addend: 0x0, symName: __ZNKSt3__112basic_stringIcNS_11char_traitsIcEENS_9allocatorIcEEE19__get_short_pointerB8ue170006Ev, symObjAddr: 0x3BE8, symBinAddr: 0x100005768, symSize: 0x28 }
  - { offsetInCU: 0x1D910, offset: 0x1D910, size: 0x8, addend: 0x0, symName: __ZNSt3__114pointer_traitsIPKcE10pointer_toB8ue170006ERS1_, symObjAddr: 0x3C10, symBinAddr: 0x100005790, symSize: 0x14 }
  - { offsetInCU: 0x1D933, offset: 0x1D933, size: 0x8, addend: 0x0, symName: __ZNSt3__112basic_stringIcNS_11char_traitsIcEENS_9allocatorIcEEEC2B8ue170006EOS5_, symObjAddr: 0x3C24, symBinAddr: 0x1000057A4, symSize: 0x48 }
  - { offsetInCU: 0x1D96C, offset: 0x1D96C, size: 0x8, addend: 0x0, symName: __ZNSt3__111char_traitsIcE6lengthB8ue170006EPKc, symObjAddr: 0x3C6C, symBinAddr: 0x1000057EC, symSize: 0x34 }
  - { offsetInCU: 0x1D98F, offset: 0x1D98F, size: 0x8, addend: 0x0, symName: __ZNSt3__116allocator_traitsINS_9allocatorIcEEE37select_on_container_copy_constructionB8ue170006IS2_vvEES2_RKS2_, symObjAddr: 0x3CA0, symBinAddr: 0x100005820, symSize: 0x10 }
  - { offsetInCU: 0x1D9BE, offset: 0x1D9BE, size: 0x8, addend: 0x0, symName: __ZNSt3__112basic_stringIcNS_11char_traitsIcEENS_9allocatorIcEEEC1B8ue170006ENS_24__uninitialized_size_tagEmRKS4_, symObjAddr: 0x3CB0, symBinAddr: 0x100005830, symSize: 0x3C }
  - { offsetInCU: 0x1DA11, offset: 0x1DA11, size: 0x8, addend: 0x0, symName: __ZNSt3__112basic_stringIcNS_11char_traitsIcEENS_9allocatorIcEEE13__get_pointerB8ue170006Ev, symObjAddr: 0x3D00, symBinAddr: 0x100005880, symSize: 0x54 }
  - { offsetInCU: 0x1DA37, offset: 0x1DA37, size: 0x8, addend: 0x0, symName: __ZNSt3__111char_traitsIcE4copyB8ue170006EPcPKcm, symObjAddr: 0x3D54, symBinAddr: 0x1000058D4, symSize: 0x40 }
  - { offsetInCU: 0x1DA76, offset: 0x1DA76, size: 0x8, addend: 0x0, symName: __ZNSt3__111char_traitsIcE6assignB8ue170006EPcmc, symObjAddr: 0x3D94, symBinAddr: 0x100005914, symSize: 0x44 }
  - { offsetInCU: 0x1DAB5, offset: 0x1DAB5, size: 0x8, addend: 0x0, symName: __ZNSt3__112basic_stringIcNS_11char_traitsIcEENS_9allocatorIcEEEC2B8ue170006ENS_24__uninitialized_size_tagEmRKS4_, symObjAddr: 0x3DFC, symBinAddr: 0x10000597C, symSize: 0x110 }
  - { offsetInCU: 0x1DB35, offset: 0x1DB35, size: 0x8, addend: 0x0, symName: __ZNKSt3__112basic_stringIcNS_11char_traitsIcEENS_9allocatorIcEEE20__throw_length_errorB8ue170006Ev, symObjAddr: 0x3F0C, symBinAddr: 0x100005A8C, symSize: 0x1C }
  - { offsetInCU: 0x1DB5B, offset: 0x1DB5B, size: 0x8, addend: 0x0, symName: __ZNSt3__112basic_stringIcNS_11char_traitsIcEENS_9allocatorIcEEE13__fits_in_ssoB8ue170006Em, symObjAddr: 0x3F28, symBinAddr: 0x100005AA8, symSize: 0x20 }
  - { offsetInCU: 0x1DB7F, offset: 0x1DB7F, size: 0x8, addend: 0x0, symName: __ZNSt3__112basic_stringIcNS_11char_traitsIcEENS_9allocatorIcEEE11__recommendB8ue170006Em, symObjAddr: 0x3F48, symBinAddr: 0x100005AC8, symSize: 0x84 }
  - { offsetInCU: 0x1DBB2, offset: 0x1DBB2, size: 0x8, addend: 0x0, symName: __ZNSt3__116allocator_traitsINS_9allocatorIcEEE8allocateB8ue170006ERS2_m, symObjAddr: 0x3FCC, symBinAddr: 0x100005B4C, symSize: 0x2C }
  - { offsetInCU: 0x1DBE5, offset: 0x1DBE5, size: 0x8, addend: 0x0, symName: __ZNSt3__112basic_stringIcNS_11char_traitsIcEENS_9allocatorIcEEE7__allocB8ue170006Ev, symObjAddr: 0x3FF8, symBinAddr: 0x100005B78, symSize: 0x24 }
  - { offsetInCU: 0x1DC0B, offset: 0x1DC0B, size: 0x8, addend: 0x0, symName: __ZNSt3__112basic_stringIcNS_11char_traitsIcEENS_9allocatorIcEEE16__begin_lifetimeB8ue170006EPcm, symObjAddr: 0x401C, symBinAddr: 0x100005B9C, symSize: 0x14 }
  - { offsetInCU: 0x1DC3E, offset: 0x1DC3E, size: 0x8, addend: 0x0, symName: __ZNSt3__112basic_stringIcNS_11char_traitsIcEENS_9allocatorIcEEE14__set_long_capB8ue170006Em, symObjAddr: 0x4030, symBinAddr: 0x100005BB0, symSize: 0x70 }
  - { offsetInCU: 0x1DC73, offset: 0x1DC73, size: 0x8, addend: 0x0, symName: __ZNSt3__112basic_stringIcNS_11char_traitsIcEENS_9allocatorIcEEE18__set_long_pointerB8ue170006EPc, symObjAddr: 0x40A0, symBinAddr: 0x100005C20, symSize: 0x38 }
  - { offsetInCU: 0x1DCA8, offset: 0x1DCA8, size: 0x8, addend: 0x0, symName: __ZNSt12length_errorC1B8ue170006EPKc, symObjAddr: 0x413C, symBinAddr: 0x100005CBC, symSize: 0x34 }
  - { offsetInCU: 0x1DCE0, offset: 0x1DCE0, size: 0x8, addend: 0x0, symName: __ZNSt12length_errorC2B8ue170006EPKc, symObjAddr: 0x4170, symBinAddr: 0x100005CF0, symSize: 0x4C }
  - { offsetInCU: 0x1DD18, offset: 0x1DD18, size: 0x8, addend: 0x0, symName: __ZNSt3__112basic_stringIcNS_11char_traitsIcEENS_9allocatorIcEEE10__align_itB8ue170006ILm16EEEmm, symObjAddr: 0x41BC, symBinAddr: 0x100005D3C, symSize: 0x1C }
  - { offsetInCU: 0x1DD46, offset: 0x1DD46, size: 0x8, addend: 0x0, symName: __ZNSt3__19allocatorIcE8allocateB8ue170006Em, symObjAddr: 0x41D8, symBinAddr: 0x100005D58, symSize: 0x58 }
  - { offsetInCU: 0x1DD7A, offset: 0x1DD7A, size: 0x8, addend: 0x0, symName: __ZNSt3__117__compressed_pairINS_12basic_stringIcNS_11char_traitsIcEENS_9allocatorIcEEE5__repES5_E6secondB8ue170006Ev, symObjAddr: 0x42B0, symBinAddr: 0x100005E30, symSize: 0x24 }
  - { offsetInCU: 0x1DDA0, offset: 0x1DDA0, size: 0x8, addend: 0x0, symName: __ZNSt3__122__compressed_pair_elemINS_9allocatorIcEELi1ELb1EE5__getB8ue170006Ev, symObjAddr: 0x42D4, symBinAddr: 0x100005E54, symSize: 0x14 }
  - { offsetInCU: 0x1DDE9, offset: 0x1DDE9, size: 0x8, addend: 0x0, symName: __ZNKSt3__114__copy_trivialclB8ue170006IKccLi0EEENS_4pairIPT_PT0_EES5_S5_S7_, symObjAddr: 0x4508, symBinAddr: 0x100006088, symSize: 0x48 }
  - { offsetInCU: 0x1DE6F, offset: 0x1DE6F, size: 0x8, addend: 0x0, symName: __ZNSt3__14pairIPKcS2_EC1B8ue170006IS2_S2_LPv0EEEOT_OT0_, symObjAddr: 0x4670, symBinAddr: 0x1000061F0, symSize: 0x3C }
  - { offsetInCU: 0x1DECD, offset: 0x1DECD, size: 0x8, addend: 0x0, symName: __ZNSt3__14pairIPKcS2_EC2B8ue170006IS2_S2_LPv0EEEOT_OT0_, symObjAddr: 0x46AC, symBinAddr: 0x10000622C, symSize: 0x34 }
  - { offsetInCU: 0x1DF2B, offset: 0x1DF2B, size: 0x8, addend: 0x0, symName: __ZNSt3__118__unwrap_iter_implIPKcLb1EE8__unwrapB8ue170006ES2_, symObjAddr: 0x46E0, symBinAddr: 0x100006260, symSize: 0x24 }
  - { offsetInCU: 0x1DF58, offset: 0x1DF58, size: 0x8, addend: 0x0, symName: __ZNSt3__14pairIPKcPcEC1B8ue170006IRS2_S3_LPv0EEEOT_OT0_, symObjAddr: 0x4818, symBinAddr: 0x100006398, symSize: 0x3C }
  - { offsetInCU: 0x1DFB6, offset: 0x1DFB6, size: 0x8, addend: 0x0, symName: __ZNSt3__14pairIPKcPcEC2B8ue170006IRS2_S3_LPv0EEEOT_OT0_, symObjAddr: 0x4854, symBinAddr: 0x1000063D4, symSize: 0x34 }
  - { offsetInCU: 0x1E014, offset: 0x1E014, size: 0x8, addend: 0x0, symName: __ZNSt3__118__unwrap_iter_implIPcLb1EE8__unwrapB8ue170006ES1_, symObjAddr: 0x4888, symBinAddr: 0x100006408, symSize: 0x24 }
  - { offsetInCU: 0x1E037, offset: 0x1E037, size: 0x8, addend: 0x0, symName: __ZNSt3__14pairIPKcPcEC1B8ue170006IS2_S3_LPv0EEEOT_OT0_, symObjAddr: 0x48AC, symBinAddr: 0x10000642C, symSize: 0x3C }
  - { offsetInCU: 0x1E095, offset: 0x1E095, size: 0x8, addend: 0x0, symName: __ZNSt3__14pairIPKcPcEC2B8ue170006IS2_S3_LPv0EEEOT_OT0_, symObjAddr: 0x48E8, symBinAddr: 0x100006468, symSize: 0x34 }
  - { offsetInCU: 0x1E0F3, offset: 0x1E0F3, size: 0x8, addend: 0x0, symName: __ZNSt3__118__unwrap_iter_implIPKcLb1EE8__rewrapB8ue170006ES2_S2_, symObjAddr: 0x4958, symBinAddr: 0x1000064D8, symSize: 0x48 }
  - { offsetInCU: 0x1E124, offset: 0x1E124, size: 0x8, addend: 0x0, symName: __ZNSt3__118__unwrap_iter_implIPcLb1EE8__rewrapB8ue170006ES1_S1_, symObjAddr: 0x49A0, symBinAddr: 0x100006520, symSize: 0x48 }
  - { offsetInCU: 0x1E155, offset: 0x1E155, size: 0x8, addend: 0x0, symName: __ZNKSt3__112__hash_tableINS_12basic_stringIcNS_11char_traitsIcEENS_9allocatorIcEEEENS_4hashIS6_EENS_8equal_toIS6_EENS4_IS6_EEE14__count_uniqueIS6_EEmRKT_, symObjAddr: 0x4AA4, symBinAddr: 0x100006624, symSize: 0x64 }
  - { offsetInCU: 0x1E195, offset: 0x1E195, size: 0x8, addend: 0x0, symName: __ZNKSt3__112__hash_tableINS_12basic_stringIcNS_11char_traitsIcEENS_9allocatorIcEEEENS_4hashIS6_EENS_8equal_toIS6_EENS4_IS6_EEE4findIS6_EENS_21__hash_const_iteratorIPNS_11__hash_nodeIS6_PvEEEERKT_, symObjAddr: 0x4B3C, symBinAddr: 0x1000066BC, symSize: 0x1B8 }
  - { offsetInCU: 0x1E220, offset: 0x1E220, size: 0x8, addend: 0x0, symName: __ZNKSt3__112__hash_tableINS_12basic_stringIcNS_11char_traitsIcEENS_9allocatorIcEEEENS_4hashIS6_EENS_8equal_toIS6_EENS4_IS6_EEE3endEv, symObjAddr: 0x4CF4, symBinAddr: 0x100006874, symSize: 0x2C }
  - { offsetInCU: 0x1E248, offset: 0x1E248, size: 0x8, addend: 0x0, symName: __ZNKSt3__112__hash_tableINS_12basic_stringIcNS_11char_traitsIcEENS_9allocatorIcEEEENS_4hashIS6_EENS_8equal_toIS6_EENS4_IS6_EEE13hash_functionB8ue170006Ev, symObjAddr: 0x4D50, symBinAddr: 0x1000068D0, symSize: 0x28 }
  - { offsetInCU: 0x1E26E, offset: 0x1E26E, size: 0x8, addend: 0x0, symName: __ZNKSt3__113__string_hashIcNS_9allocatorIcEEEclB8ue170006ERKNS_12basic_stringIcNS_11char_traitsIcEES2_EE, symObjAddr: 0x4D78, symBinAddr: 0x1000068F8, symSize: 0x64 }
  - { offsetInCU: 0x1E2A3, offset: 0x1E2A3, size: 0x8, addend: 0x0, symName: __ZNKSt3__112__hash_tableINS_12basic_stringIcNS_11char_traitsIcEENS_9allocatorIcEEEENS_4hashIS6_EENS_8equal_toIS6_EENS4_IS6_EEE12bucket_countB8ue170006Ev, symObjAddr: 0x4DDC, symBinAddr: 0x10000695C, symSize: 0x28 }
  - { offsetInCU: 0x1E2C9, offset: 0x1E2C9, size: 0x8, addend: 0x0, symName: __ZNKSt3__110unique_ptrIA_PNS_16__hash_node_baseIPNS_11__hash_nodeINS_12basic_stringIcNS_11char_traitsIcEENS_9allocatorIcEEEEPvEEEENS_25__bucket_list_deallocatorINS6_ISD_EEEEEixB8ue170006Em, symObjAddr: 0x4E9C, symBinAddr: 0x100006A1C, symSize: 0x34 }
  - { offsetInCU: 0x1E2FE, offset: 0x1E2FE, size: 0x8, addend: 0x0, symName: __ZNKSt3__116__hash_node_baseIPNS_11__hash_nodeINS_12basic_stringIcNS_11char_traitsIcEENS_9allocatorIcEEEEPvEEE6__hashB8ue170006Ev, symObjAddr: 0x4ED0, symBinAddr: 0x100006A50, symSize: 0x18 }
  - { offsetInCU: 0x1E324, offset: 0x1E324, size: 0x8, addend: 0x0, symName: __ZNKSt3__112__hash_tableINS_12basic_stringIcNS_11char_traitsIcEENS_9allocatorIcEEEENS_4hashIS6_EENS_8equal_toIS6_EENS4_IS6_EEE6key_eqB8ue170006Ev, symObjAddr: 0x4EE8, symBinAddr: 0x100006A68, symSize: 0x28 }
  - { offsetInCU: 0x1E34A, offset: 0x1E34A, size: 0x8, addend: 0x0, symName: __ZNKSt3__18equal_toINS_12basic_stringIcNS_11char_traitsIcEENS_9allocatorIcEEEEEclB8ue170006ERKS6_S9_, symObjAddr: 0x4F10, symBinAddr: 0x100006A90, symSize: 0x34 }
  - { offsetInCU: 0x1E38E, offset: 0x1E38E, size: 0x8, addend: 0x0, symName: __ZNSt3__116__hash_node_baseIPNS_11__hash_nodeINS_12basic_stringIcNS_11char_traitsIcEENS_9allocatorIcEEEEPvEEE8__upcastB8ue170006Ev, symObjAddr: 0x4F44, symBinAddr: 0x100006AC4, symSize: 0x24 }
  - { offsetInCU: 0x1E3B4, offset: 0x1E3B4, size: 0x8, addend: 0x0, symName: __ZNSt3__121__hash_const_iteratorIPNS_11__hash_nodeINS_12basic_stringIcNS_11char_traitsIcEENS_9allocatorIcEEEEPvEEEC1B8ue170006EPNS_16__hash_node_baseISA_EE, symObjAddr: 0x4F68, symBinAddr: 0x100006AE8, symSize: 0x34 }
  - { offsetInCU: 0x1E3ED, offset: 0x1E3ED, size: 0x8, addend: 0x0, symName: __ZNKSt3__117__compressed_pairImNS_4hashINS_12basic_stringIcNS_11char_traitsIcEENS_9allocatorIcEEEEEEE6secondB8ue170006Ev, symObjAddr: 0x4F9C, symBinAddr: 0x100006B1C, symSize: 0x24 }
  - { offsetInCU: 0x1E413, offset: 0x1E413, size: 0x8, addend: 0x0, symName: __ZNKSt3__122__compressed_pair_elemINS_4hashINS_12basic_stringIcNS_11char_traitsIcEENS_9allocatorIcEEEEEELi1ELb1EE5__getB8ue170006Ev, symObjAddr: 0x4FC0, symBinAddr: 0x100006B40, symSize: 0x14 }
  - { offsetInCU: 0x1E439, offset: 0x1E439, size: 0x8, addend: 0x0, symName: __ZNKSt3__121__murmur2_or_cityhashImLm64EEclB8ue170006EPKvm, symObjAddr: 0x5010, symBinAddr: 0x100006B90, symSize: 0x410 }
  - { offsetInCU: 0x1E4D3, offset: 0x1E4D3, size: 0x8, addend: 0x0, symName: __ZNSt3__121__murmur2_or_cityhashImLm64EE18__hash_len_0_to_16B8ue170006EPKcm, symObjAddr: 0x5420, symBinAddr: 0x100006FA0, symSize: 0x1C0 }
  - { offsetInCU: 0x1E5AF, offset: 0x1E5AF, size: 0x8, addend: 0x0, symName: __ZNSt3__121__murmur2_or_cityhashImLm64EE19__hash_len_17_to_32B8ue170006EPKcm, symObjAddr: 0x55E0, symBinAddr: 0x100007160, symSize: 0x130 }
  - { offsetInCU: 0x1E618, offset: 0x1E618, size: 0x8, addend: 0x0, symName: __ZNSt3__121__murmur2_or_cityhashImLm64EE19__hash_len_33_to_64B8ue170006EPKcm, symObjAddr: 0x5710, symBinAddr: 0x100007290, symSize: 0x2B8 }
  - { offsetInCU: 0x1E6CD, offset: 0x1E6CD, size: 0x8, addend: 0x0, symName: __ZNSt3__121__murmur2_or_cityhashImLm64EE13__hash_len_16B8ue170006Emm, symObjAddr: 0x59E8, symBinAddr: 0x100007568, symSize: 0x80 }
  - { offsetInCU: 0x1E728, offset: 0x1E728, size: 0x8, addend: 0x0, symName: __ZNSt3__121__murmur2_or_cityhashImLm64EE29__weak_hash_len_32_with_seedsB8ue170006EPKcmm, symObjAddr: 0x5A68, symBinAddr: 0x1000075E8, symSize: 0x88 }
  - { offsetInCU: 0x1E767, offset: 0x1E767, size: 0x8, addend: 0x0, symName: __ZNSt3__121__murmur2_or_cityhashImLm64EE8__rotateB8ue170006Emi, symObjAddr: 0x5AF0, symBinAddr: 0x100007670, symSize: 0x64 }
  - { offsetInCU: 0x1E798, offset: 0x1E798, size: 0x8, addend: 0x0, symName: __ZNSt3__14pairImmEaSB8ue170006EOS1_, symObjAddr: 0x5B54, symBinAddr: 0x1000076D4, symSize: 0x30 }
  - { offsetInCU: 0x1E7CD, offset: 0x1E7CD, size: 0x8, addend: 0x0, symName: __ZNSt3__121__murmur2_or_cityhashImLm64EE11__shift_mixB8ue170006Em, symObjAddr: 0x5BC0, symBinAddr: 0x100007740, symSize: 0x1C }
  - { offsetInCU: 0x1E7F0, offset: 0x1E7F0, size: 0x8, addend: 0x0, symName: __ZNSt3__121__murmur2_or_cityhashImLm64EE22__rotate_by_at_least_1B8ue170006Emi, symObjAddr: 0x5BDC, symBinAddr: 0x10000775C, symSize: 0x38 }
  - { offsetInCU: 0x1E821, offset: 0x1E821, size: 0x8, addend: 0x0, symName: __ZNSt3__121__murmur2_or_cityhashImLm64EE29__weak_hash_len_32_with_seedsB8ue170006Emmmmmm, symObjAddr: 0x5C34, symBinAddr: 0x1000077B4, symSize: 0xD8 }
  - { offsetInCU: 0x1E89D, offset: 0x1E89D, size: 0x8, addend: 0x0, symName: __ZNSt3__14pairImmEC1B8ue170006ImmLPv0EEEOT_OT0_, symObjAddr: 0x5D0C, symBinAddr: 0x10000788C, symSize: 0x3C }
  - { offsetInCU: 0x1E8FB, offset: 0x1E8FB, size: 0x8, addend: 0x0, symName: __ZNSt3__14pairImmEC2B8ue170006ImmLPv0EEEOT_OT0_, symObjAddr: 0x5D48, symBinAddr: 0x1000078C8, symSize: 0x34 }
  - { offsetInCU: 0x1E959, offset: 0x1E959, size: 0x8, addend: 0x0, symName: __ZNKSt3__110unique_ptrIA_PNS_16__hash_node_baseIPNS_11__hash_nodeINS_12basic_stringIcNS_11char_traitsIcEENS_9allocatorIcEEEEPvEEEENS_25__bucket_list_deallocatorINS6_ISD_EEEEE11get_deleterB8ue170006Ev, symObjAddr: 0x5D7C, symBinAddr: 0x1000078FC, symSize: 0x24 }
  - { offsetInCU: 0x1E97F, offset: 0x1E97F, size: 0x8, addend: 0x0, symName: __ZNKSt3__125__bucket_list_deallocatorINS_9allocatorIPNS_16__hash_node_baseIPNS_11__hash_nodeINS_12basic_stringIcNS_11char_traitsIcEENS1_IcEEEEPvEEEEEEE4sizeB8ue170006Ev, symObjAddr: 0x5DA0, symBinAddr: 0x100007920, symSize: 0x28 }
  - { offsetInCU: 0x1E9A5, offset: 0x1E9A5, size: 0x8, addend: 0x0, symName: __ZNKSt3__117__compressed_pairIPPNS_16__hash_node_baseIPNS_11__hash_nodeINS_12basic_stringIcNS_11char_traitsIcEENS_9allocatorIcEEEEPvEEEENS_25__bucket_list_deallocatorINS6_ISD_EEEEE6secondB8ue170006Ev, symObjAddr: 0x5DC8, symBinAddr: 0x100007948, symSize: 0x28 }
  - { offsetInCU: 0x1E9CB, offset: 0x1E9CB, size: 0x8, addend: 0x0, symName: __ZNKSt3__122__compressed_pair_elemINS_25__bucket_list_deallocatorINS_9allocatorIPNS_16__hash_node_baseIPNS_11__hash_nodeINS_12basic_stringIcNS_11char_traitsIcEENS2_IcEEEEPvEEEEEEEELi1ELb0EE5__getB8ue170006Ev, symObjAddr: 0x5DF0, symBinAddr: 0x100007970, symSize: 0x14 }
  - { offsetInCU: 0x1E9F1, offset: 0x1E9F1, size: 0x8, addend: 0x0, symName: __ZNKSt3__117__compressed_pairImNS_9allocatorIPNS_16__hash_node_baseIPNS_11__hash_nodeINS_12basic_stringIcNS_11char_traitsIcEENS1_IcEEEEPvEEEEEEE5firstB8ue170006Ev, symObjAddr: 0x5E04, symBinAddr: 0x100007984, symSize: 0x24 }
  - { offsetInCU: 0x1EA17, offset: 0x1EA17, size: 0x8, addend: 0x0, symName: __ZNKSt3__122__compressed_pair_elemImLi0ELb0EE5__getB8ue170006Ev, symObjAddr: 0x5E28, symBinAddr: 0x1000079A8, symSize: 0x14 }
  - { offsetInCU: 0x1EA3D, offset: 0x1EA3D, size: 0x8, addend: 0x0, symName: __ZNKSt3__117__compressed_pairIPPNS_16__hash_node_baseIPNS_11__hash_nodeINS_12basic_stringIcNS_11char_traitsIcEENS_9allocatorIcEEEEPvEEEENS_25__bucket_list_deallocatorINS6_ISD_EEEEE5firstB8ue170006Ev, symObjAddr: 0x5E3C, symBinAddr: 0x1000079BC, symSize: 0x24 }
  - { offsetInCU: 0x1EA63, offset: 0x1EA63, size: 0x8, addend: 0x0, symName: __ZNKSt3__122__compressed_pair_elemIPPNS_16__hash_node_baseIPNS_11__hash_nodeINS_12basic_stringIcNS_11char_traitsIcEENS_9allocatorIcEEEEPvEEEELi0ELb0EE5__getB8ue170006Ev, symObjAddr: 0x5E60, symBinAddr: 0x1000079E0, symSize: 0x14 }
  - { offsetInCU: 0x1EA89, offset: 0x1EA89, size: 0x8, addend: 0x0, symName: __ZNKSt3__117__compressed_pairIfNS_8equal_toINS_12basic_stringIcNS_11char_traitsIcEENS_9allocatorIcEEEEEEE6secondB8ue170006Ev, symObjAddr: 0x5E74, symBinAddr: 0x1000079F4, symSize: 0x24 }
  - { offsetInCU: 0x1EAAF, offset: 0x1EAAF, size: 0x8, addend: 0x0, symName: __ZNKSt3__122__compressed_pair_elemINS_8equal_toINS_12basic_stringIcNS_11char_traitsIcEENS_9allocatorIcEEEEEELi1ELb1EE5__getB8ue170006Ev, symObjAddr: 0x5E98, symBinAddr: 0x100007A18, symSize: 0x14 }
  - { offsetInCU: 0x1EAD5, offset: 0x1EAD5, size: 0x8, addend: 0x0, symName: __ZNSt3__111char_traitsIcE7compareB8ue170006EPKcS3_m, symObjAddr: 0x5FF4, symBinAddr: 0x100007B74, symSize: 0x34 }
  - { offsetInCU: 0x1EB14, offset: 0x1EB14, size: 0x8, addend: 0x0, symName: __ZNSt3__114pointer_traitsIPNS_16__hash_node_baseIPNS_11__hash_nodeINS_12basic_stringIcNS_11char_traitsIcEENS_9allocatorIcEEEEPvEEEEE10pointer_toB8ue170006ERSC_, symObjAddr: 0x6028, symBinAddr: 0x100007BA8, symSize: 0x14 }
  - { offsetInCU: 0x1EB37, offset: 0x1EB37, size: 0x8, addend: 0x0, symName: __ZNSt3__121__hash_const_iteratorIPNS_11__hash_nodeINS_12basic_stringIcNS_11char_traitsIcEENS_9allocatorIcEEEEPvEEEC2B8ue170006EPNS_16__hash_node_baseISA_EE, symObjAddr: 0x603C, symBinAddr: 0x100007BBC, symSize: 0x20 }
  - { offsetInCU: 0x1EB70, offset: 0x1EB70, size: 0x8, addend: 0x0, symName: __ZNSt3__112__hash_tableINS_12basic_stringIcNS_11char_traitsIcEENS_9allocatorIcEEEENS_4hashIS6_EENS_8equal_toIS6_EENS4_IS6_EEE15__insert_uniqueB8ue170006ERKS6_, symObjAddr: 0x605C, symBinAddr: 0x100007BDC, symSize: 0x50 }
  - { offsetInCU: 0x1EBA5, offset: 0x1EBA5, size: 0x8, addend: 0x0, symName: __ZNSt3__14pairINS_21__hash_const_iteratorIPNS_11__hash_nodeINS_12basic_stringIcNS_11char_traitsIcEENS_9allocatorIcEEEEPvEEEEbEC1B8ue170006INS_15__hash_iteratorISB_EEbLS9_0EEEONS0_IT_T0_EE, symObjAddr: 0x60AC, symBinAddr: 0x100007C2C, symSize: 0x34 }
  - { offsetInCU: 0x1EBF6, offset: 0x1EBF6, size: 0x8, addend: 0x0, symName: __ZNSt3__112__hash_tableINS_12basic_stringIcNS_11char_traitsIcEENS_9allocatorIcEEEENS_4hashIS6_EENS_8equal_toIS6_EENS4_IS6_EEE25__emplace_unique_key_argsIS6_JRKS6_EEENS_4pairINS_15__hash_iteratorIPNS_11__hash_nodeIS6_PvEEEEbEERKT_DpOT0_, symObjAddr: 0x60E0, symBinAddr: 0x100007C60, symSize: 0x4A8 }
  - { offsetInCU: 0x1ECD6, offset: 0x1ECD6, size: 0x8, addend: 0x0, symName: __ZNSt3__122__hash_key_value_typesINS_12basic_stringIcNS_11char_traitsIcEENS_9allocatorIcEEEEE9__get_keyB8ue170006ERKS6_, symObjAddr: 0x6588, symBinAddr: 0x100008108, symSize: 0x14 }
  - { offsetInCU: 0x1ECF9, offset: 0x1ECF9, size: 0x8, addend: 0x0, symName: __ZNSt3__112__hash_tableINS_12basic_stringIcNS_11char_traitsIcEENS_9allocatorIcEEEENS_4hashIS6_EENS_8equal_toIS6_EENS4_IS6_EEE13hash_functionB8ue170006Ev, symObjAddr: 0x659C, symBinAddr: 0x10000811C, symSize: 0x28 }
  - { offsetInCU: 0x1ED1F, offset: 0x1ED1F, size: 0x8, addend: 0x0, symName: __ZNSt3__112__hash_tableINS_12basic_stringIcNS_11char_traitsIcEENS_9allocatorIcEEEENS_4hashIS6_EENS_8equal_toIS6_EENS4_IS6_EEE6key_eqB8ue170006Ev, symObjAddr: 0x65C4, symBinAddr: 0x100008144, symSize: 0x28 }
  - { offsetInCU: 0x1ED45, offset: 0x1ED45, size: 0x8, addend: 0x0, symName: __ZNSt3__112__hash_tableINS_12basic_stringIcNS_11char_traitsIcEENS_9allocatorIcEEEENS_4hashIS6_EENS_8equal_toIS6_EENS4_IS6_EEE21__construct_node_hashIRKS6_JEEENS_10unique_ptrINS_11__hash_nodeIS6_PvEENS_22__hash_node_destructorINS4_ISJ_EEEEEEmOT_DpOT0_, symObjAddr: 0x65EC, symBinAddr: 0x10000816C, symSize: 0x140 }
  - { offsetInCU: 0x1EDB8, offset: 0x1EDB8, size: 0x8, addend: 0x0, symName: __ZNSt3__112__hash_tableINS_12basic_stringIcNS_11char_traitsIcEENS_9allocatorIcEEEENS_4hashIS6_EENS_8equal_toIS6_EENS4_IS6_EEE4sizeB8ue170006Ev, symObjAddr: 0x672C, symBinAddr: 0x1000082AC, symSize: 0x28 }
  - { offsetInCU: 0x1EDDE, offset: 0x1EDDE, size: 0x8, addend: 0x0, symName: __ZNSt3__112__hash_tableINS_12basic_stringIcNS_11char_traitsIcEENS_9allocatorIcEEEENS_4hashIS6_EENS_8equal_toIS6_EENS4_IS6_EEE15max_load_factorB8ue170006Ev, symObjAddr: 0x6754, symBinAddr: 0x1000082D4, symSize: 0x28 }
  - { offsetInCU: 0x1EE04, offset: 0x1EE04, size: 0x8, addend: 0x0, symName: __ZNSt3__112__hash_tableINS_12basic_stringIcNS_11char_traitsIcEENS_9allocatorIcEEEENS_4hashIS6_EENS_8equal_toIS6_EENS4_IS6_EEE15__rehash_uniqueB8ue170006Em, symObjAddr: 0x677C, symBinAddr: 0x1000082FC, symSize: 0x2C }
  - { offsetInCU: 0x1EE38, offset: 0x1EE38, size: 0x8, addend: 0x0, symName: __Z4ceilB8ue170006f, symObjAddr: 0x6824, symBinAddr: 0x1000083A4, symSize: 0x18 }
  - { offsetInCU: 0x1EE67, offset: 0x1EE67, size: 0x8, addend: 0x0, symName: __ZNSt3__117__compressed_pairINS_16__hash_node_baseIPNS_11__hash_nodeINS_12basic_stringIcNS_11char_traitsIcEENS_9allocatorIcEEEEPvEEEENS6_ISA_EEE5firstB8ue170006Ev, symObjAddr: 0x683C, symBinAddr: 0x1000083BC, symSize: 0x24 }
  - { offsetInCU: 0x1EE8D, offset: 0x1EE8D, size: 0x8, addend: 0x0, symName: __ZNSt3__116__hash_node_baseIPNS_11__hash_nodeINS_12basic_stringIcNS_11char_traitsIcEENS_9allocatorIcEEEEPvEEE5__ptrB8ue170006Ev, symObjAddr: 0x6860, symBinAddr: 0x1000083E0, symSize: 0x24 }
  - { offsetInCU: 0x1EEB3, offset: 0x1EEB3, size: 0x8, addend: 0x0, symName: __ZNKSt3__110unique_ptrINS_11__hash_nodeINS_12basic_stringIcNS_11char_traitsIcEENS_9allocatorIcEEEEPvEENS_22__hash_node_destructorINS5_IS9_EEEEEptB8ue170006Ev, symObjAddr: 0x6884, symBinAddr: 0x100008404, symSize: 0x28 }
  - { offsetInCU: 0x1EED9, offset: 0x1EED9, size: 0x8, addend: 0x0, symName: __ZNKSt3__110unique_ptrINS_11__hash_nodeINS_12basic_stringIcNS_11char_traitsIcEENS_9allocatorIcEEEEPvEENS_22__hash_node_destructorINS5_IS9_EEEEE3getB8ue170006Ev, symObjAddr: 0x68AC, symBinAddr: 0x10000842C, symSize: 0x28 }
  - { offsetInCU: 0x1EEFF, offset: 0x1EEFF, size: 0x8, addend: 0x0, symName: __ZNSt3__110unique_ptrINS_11__hash_nodeINS_12basic_stringIcNS_11char_traitsIcEENS_9allocatorIcEEEEPvEENS_22__hash_node_destructorINS5_IS9_EEEEE7releaseB8ue170006Ev, symObjAddr: 0x68D4, symBinAddr: 0x100008454, symSize: 0x44 }
  - { offsetInCU: 0x1EF34, offset: 0x1EF34, size: 0x8, addend: 0x0, symName: __ZNSt3__110unique_ptrINS_11__hash_nodeINS_12basic_stringIcNS_11char_traitsIcEENS_9allocatorIcEEEEPvEENS_22__hash_node_destructorINS5_IS9_EEEEED1B8ue170006Ev, symObjAddr: 0x6918, symBinAddr: 0x100008498, symSize: 0x2C }
  - { offsetInCU: 0x1EF5E, offset: 0x1EF5E, size: 0x8, addend: 0x0, symName: __ZNSt3__115__hash_iteratorIPNS_11__hash_nodeINS_12basic_stringIcNS_11char_traitsIcEENS_9allocatorIcEEEEPvEEEC1B8ue170006EPNS_16__hash_node_baseISA_EE, symObjAddr: 0x6944, symBinAddr: 0x1000084C4, symSize: 0x34 }
  - { offsetInCU: 0x1EF9C, offset: 0x1EF9C, size: 0x8, addend: 0x0, symName: __ZNSt3__14pairINS_15__hash_iteratorIPNS_11__hash_nodeINS_12basic_stringIcNS_11char_traitsIcEENS_9allocatorIcEEEEPvEEEEbEC1B8ue170006ISC_RbLS9_0EEEOT_OT0_, symObjAddr: 0x6978, symBinAddr: 0x1000084F8, symSize: 0x3C }
  - { offsetInCU: 0x1EFFA, offset: 0x1EFFA, size: 0x8, addend: 0x0, symName: __ZNSt3__117__compressed_pairImNS_4hashINS_12basic_stringIcNS_11char_traitsIcEENS_9allocatorIcEEEEEEE6secondB8ue170006Ev, symObjAddr: 0x69B4, symBinAddr: 0x100008534, symSize: 0x24 }
  - { offsetInCU: 0x1F020, offset: 0x1F020, size: 0x8, addend: 0x0, symName: __ZNSt3__122__compressed_pair_elemINS_4hashINS_12basic_stringIcNS_11char_traitsIcEENS_9allocatorIcEEEEEELi1ELb1EE5__getB8ue170006Ev, symObjAddr: 0x69D8, symBinAddr: 0x100008558, symSize: 0x14 }
  - { offsetInCU: 0x1F046, offset: 0x1F046, size: 0x8, addend: 0x0, symName: __ZNSt3__117__compressed_pairIfNS_8equal_toINS_12basic_stringIcNS_11char_traitsIcEENS_9allocatorIcEEEEEEE6secondB8ue170006Ev, symObjAddr: 0x69EC, symBinAddr: 0x10000856C, symSize: 0x24 }
  - { offsetInCU: 0x1F06C, offset: 0x1F06C, size: 0x8, addend: 0x0, symName: __ZNSt3__122__compressed_pair_elemINS_8equal_toINS_12basic_stringIcNS_11char_traitsIcEENS_9allocatorIcEEEEEELi1ELb1EE5__getB8ue170006Ev, symObjAddr: 0x6A10, symBinAddr: 0x100008590, symSize: 0x14 }
  - { offsetInCU: 0x1F092, offset: 0x1F092, size: 0x8, addend: 0x0, symName: __ZNSt3__112__hash_tableINS_12basic_stringIcNS_11char_traitsIcEENS_9allocatorIcEEEENS_4hashIS6_EENS_8equal_toIS6_EENS4_IS6_EEE12__node_allocB8ue170006Ev, symObjAddr: 0x6A24, symBinAddr: 0x1000085A4, symSize: 0x28 }
  - { offsetInCU: 0x1F0B8, offset: 0x1F0B8, size: 0x8, addend: 0x0, symName: __ZNSt3__116allocator_traitsINS_9allocatorINS_11__hash_nodeINS_12basic_stringIcNS_11char_traitsIcEENS1_IcEEEEPvEEEEE8allocateB8ue170006ERSA_m, symObjAddr: 0x6A4C, symBinAddr: 0x1000085CC, symSize: 0x2C }
  - { offsetInCU: 0x1F0EB, offset: 0x1F0EB, size: 0x8, addend: 0x0, symName: __ZNSt3__122__hash_node_destructorINS_9allocatorINS_11__hash_nodeINS_12basic_stringIcNS_11char_traitsIcEENS1_IcEEEEPvEEEEEC1B8ue170006ERSA_b, symObjAddr: 0x6A78, symBinAddr: 0x1000085F8, symSize: 0x48 }
  - { offsetInCU: 0x1F138, offset: 0x1F138, size: 0x8, addend: 0x0, symName: __ZNSt3__110unique_ptrINS_11__hash_nodeINS_12basic_stringIcNS_11char_traitsIcEENS_9allocatorIcEEEEPvEENS_22__hash_node_destructorINS5_IS9_EEEEEC1B8ue170006ILb1EvEEPS9_NS_16__dependent_typeINS_27__unique_ptr_deleter_sfinaeISC_EEXT_EE20__good_rval_ref_typeE, symObjAddr: 0x6AC0, symBinAddr: 0x100008640, symSize: 0x3C }
  - { offsetInCU: 0x1F189, offset: 0x1F189, size: 0x8, addend: 0x0, symName: __ZNSt3__116allocator_traitsINS_9allocatorINS_11__hash_nodeINS_12basic_stringIcNS_11char_traitsIcEENS1_IcEEEEPvEEEEE9constructB8ue170006IS7_JRKS7_EvEEvRSA_PT_DpOT0_, symObjAddr: 0x6AFC, symBinAddr: 0x10000867C, symSize: 0x34 }
  - { offsetInCU: 0x1F1E0, offset: 0x1F1E0, size: 0x8, addend: 0x0, symName: __ZNSt3__122__hash_key_value_typesINS_12basic_stringIcNS_11char_traitsIcEENS_9allocatorIcEEEEE9__get_ptrB8ue170006ERS6_, symObjAddr: 0x6B30, symBinAddr: 0x1000086B0, symSize: 0x14 }
  - { offsetInCU: 0x1F203, offset: 0x1F203, size: 0x8, addend: 0x0, symName: __ZNSt3__110unique_ptrINS_11__hash_nodeINS_12basic_stringIcNS_11char_traitsIcEENS_9allocatorIcEEEEPvEENS_22__hash_node_destructorINS5_IS9_EEEEE11get_deleterB8ue170006Ev, symObjAddr: 0x6B44, symBinAddr: 0x1000086C4, symSize: 0x24 }
  - { offsetInCU: 0x1F229, offset: 0x1F229, size: 0x8, addend: 0x0, symName: __ZNSt3__117__compressed_pairINS_16__hash_node_baseIPNS_11__hash_nodeINS_12basic_stringIcNS_11char_traitsIcEENS_9allocatorIcEEEEPvEEEENS6_ISA_EEE6secondB8ue170006Ev, symObjAddr: 0x6B68, symBinAddr: 0x1000086E8, symSize: 0x24 }
  - { offsetInCU: 0x1F24F, offset: 0x1F24F, size: 0x8, addend: 0x0, symName: __ZNSt3__122__compressed_pair_elemINS_9allocatorINS_11__hash_nodeINS_12basic_stringIcNS_11char_traitsIcEENS1_IcEEEEPvEEEELi1ELb1EE5__getB8ue170006Ev, symObjAddr: 0x6B8C, symBinAddr: 0x10000870C, symSize: 0x14 }
  - { offsetInCU: 0x1F275, offset: 0x1F275, size: 0x8, addend: 0x0, symName: __ZNSt3__19allocatorINS_11__hash_nodeINS_12basic_stringIcNS_11char_traitsIcEENS0_IcEEEEPvEEE8allocateB8ue170006Em, symObjAddr: 0x6BA0, symBinAddr: 0x100008720, symSize: 0x5C }
  - { offsetInCU: 0x1F2B3, offset: 0x1F2B3, size: 0x8, addend: 0x0, symName: __ZNSt3__116allocator_traitsINS_9allocatorINS_11__hash_nodeINS_12basic_stringIcNS_11char_traitsIcEENS1_IcEEEEPvEEEEE8max_sizeB8ue170006ISA_vEEmRKSA_, symObjAddr: 0x6BFC, symBinAddr: 0x10000877C, symSize: 0x24 }
  - { offsetInCU: 0x1F2E1, offset: 0x1F2E1, size: 0x8, addend: 0x0, symName: __ZNKSt3__19allocatorINS_11__hash_nodeINS_12basic_stringIcNS_11char_traitsIcEENS0_IcEEEEPvEEE8max_sizeB8ue170006Ev, symObjAddr: 0x6C20, symBinAddr: 0x1000087A0, symSize: 0x18 }
  - { offsetInCU: 0x1F307, offset: 0x1F307, size: 0x8, addend: 0x0, symName: __ZNSt3__122__hash_node_destructorINS_9allocatorINS_11__hash_nodeINS_12basic_stringIcNS_11char_traitsIcEENS1_IcEEEEPvEEEEEC2B8ue170006ERSA_b, symObjAddr: 0x6C38, symBinAddr: 0x1000087B8, symSize: 0x38 }
  - { offsetInCU: 0x1F34F, offset: 0x1F34F, size: 0x8, addend: 0x0, symName: __ZNSt3__110unique_ptrINS_11__hash_nodeINS_12basic_stringIcNS_11char_traitsIcEENS_9allocatorIcEEEEPvEENS_22__hash_node_destructorINS5_IS9_EEEEEC2B8ue170006ILb1EvEEPS9_NS_16__dependent_typeINS_27__unique_ptr_deleter_sfinaeISC_EEXT_EE20__good_rval_ref_typeE, symObjAddr: 0x6C70, symBinAddr: 0x1000087F0, symSize: 0x48 }
  - { offsetInCU: 0x1F3A0, offset: 0x1F3A0, size: 0x8, addend: 0x0, symName: __ZNSt3__117__compressed_pairIPNS_11__hash_nodeINS_12basic_stringIcNS_11char_traitsIcEENS_9allocatorIcEEEEPvEENS_22__hash_node_destructorINS5_IS9_EEEEEC1B8ue170006IRSA_SD_EEOT_OT0_, symObjAddr: 0x6CB8, symBinAddr: 0x100008838, symSize: 0x3C }
  - { offsetInCU: 0x1F3F8, offset: 0x1F3F8, size: 0x8, addend: 0x0, symName: __ZNSt3__117__compressed_pairIPNS_11__hash_nodeINS_12basic_stringIcNS_11char_traitsIcEENS_9allocatorIcEEEEPvEENS_22__hash_node_destructorINS5_IS9_EEEEEC2B8ue170006IRSA_SD_EEOT_OT0_, symObjAddr: 0x6CF4, symBinAddr: 0x100008874, symSize: 0x48 }
  - { offsetInCU: 0x1F450, offset: 0x1F450, size: 0x8, addend: 0x0, symName: __ZNSt3__122__compressed_pair_elemIPNS_11__hash_nodeINS_12basic_stringIcNS_11char_traitsIcEENS_9allocatorIcEEEEPvEELi0ELb0EEC2B8ue170006IRSA_vEEOT_, symObjAddr: 0x6D3C, symBinAddr: 0x1000088BC, symSize: 0x24 }
  - { offsetInCU: 0x1F492, offset: 0x1F492, size: 0x8, addend: 0x0, symName: __ZNSt3__122__compressed_pair_elemINS_22__hash_node_destructorINS_9allocatorINS_11__hash_nodeINS_12basic_stringIcNS_11char_traitsIcEENS2_IcEEEEPvEEEEEELi1ELb0EEC2B8ue170006ISC_vEEOT_, symObjAddr: 0x6D60, symBinAddr: 0x1000088E0, symSize: 0x24 }
  - { offsetInCU: 0x1F4D4, offset: 0x1F4D4, size: 0x8, addend: 0x0, symName: __ZNSt3__19allocatorINS_11__hash_nodeINS_12basic_stringIcNS_11char_traitsIcEENS0_IcEEEEPvEEE9constructB8ue170006IS6_JRKS6_EEEvPT_DpOT0_, symObjAddr: 0x6D84, symBinAddr: 0x100008904, symSize: 0x30 }
  - { offsetInCU: 0x1F52A, offset: 0x1F52A, size: 0x8, addend: 0x0, symName: __ZNSt3__117__compressed_pairIPNS_11__hash_nodeINS_12basic_stringIcNS_11char_traitsIcEENS_9allocatorIcEEEEPvEENS_22__hash_node_destructorINS5_IS9_EEEEE6secondB8ue170006Ev, symObjAddr: 0x6DB4, symBinAddr: 0x100008934, symSize: 0x28 }
  - { offsetInCU: 0x1F550, offset: 0x1F550, size: 0x8, addend: 0x0, symName: __ZNSt3__122__compressed_pair_elemINS_22__hash_node_destructorINS_9allocatorINS_11__hash_nodeINS_12basic_stringIcNS_11char_traitsIcEENS2_IcEEEEPvEEEEEELi1ELb0EE5__getB8ue170006Ev, symObjAddr: 0x6DDC, symBinAddr: 0x10000895C, symSize: 0x14 }
  - { offsetInCU: 0x1F576, offset: 0x1F576, size: 0x8, addend: 0x0, symName: __ZNSt3__117__compressed_pairImNS_4hashINS_12basic_stringIcNS_11char_traitsIcEENS_9allocatorIcEEEEEEE5firstB8ue170006Ev, symObjAddr: 0x6DF0, symBinAddr: 0x100008970, symSize: 0x24 }
  - { offsetInCU: 0x1F59C, offset: 0x1F59C, size: 0x8, addend: 0x0, symName: __ZNSt3__122__compressed_pair_elemImLi0ELb0EE5__getB8ue170006Ev, symObjAddr: 0x6E14, symBinAddr: 0x100008994, symSize: 0x14 }
  - { offsetInCU: 0x1F5C2, offset: 0x1F5C2, size: 0x8, addend: 0x0, symName: __ZNSt3__117__compressed_pairIfNS_8equal_toINS_12basic_stringIcNS_11char_traitsIcEENS_9allocatorIcEEEEEEE5firstB8ue170006Ev, symObjAddr: 0x6E28, symBinAddr: 0x1000089A8, symSize: 0x24 }
  - { offsetInCU: 0x1F5E8, offset: 0x1F5E8, size: 0x8, addend: 0x0, symName: __ZNSt3__122__compressed_pair_elemIfLi0ELb0EE5__getB8ue170006Ev, symObjAddr: 0x6E4C, symBinAddr: 0x1000089CC, symSize: 0x14 }
  - { offsetInCU: 0x1F60E, offset: 0x1F60E, size: 0x8, addend: 0x0, symName: __ZNSt3__112__hash_tableINS_12basic_stringIcNS_11char_traitsIcEENS_9allocatorIcEEEENS_4hashIS6_EENS_8equal_toIS6_EENS4_IS6_EEE8__rehashILb1EEEvm, symObjAddr: 0x6E60, symBinAddr: 0x1000089E0, symSize: 0x1A8 }
  - { offsetInCU: 0x1F65E, offset: 0x1F65E, size: 0x8, addend: 0x0, symName: __ZNSt3__112__hash_tableINS_12basic_stringIcNS_11char_traitsIcEENS_9allocatorIcEEEENS_4hashIS6_EENS_8equal_toIS6_EENS4_IS6_EEE11__do_rehashILb1EEEvm, symObjAddr: 0x7008, symBinAddr: 0x100008B88, symSize: 0x288 }
  - { offsetInCU: 0x1F745, offset: 0x1F745, size: 0x8, addend: 0x0, symName: __ZNSt3__110unique_ptrIA_PNS_16__hash_node_baseIPNS_11__hash_nodeINS_12basic_stringIcNS_11char_traitsIcEENS_9allocatorIcEEEEPvEEEENS_25__bucket_list_deallocatorINS6_ISD_EEEEE11get_deleterB8ue170006Ev, symObjAddr: 0x72FC, symBinAddr: 0x100008E7C, symSize: 0x24 }
  - { offsetInCU: 0x1F76B, offset: 0x1F76B, size: 0x8, addend: 0x0, symName: __ZNSt3__125__bucket_list_deallocatorINS_9allocatorIPNS_16__hash_node_baseIPNS_11__hash_nodeINS_12basic_stringIcNS_11char_traitsIcEENS1_IcEEEEPvEEEEEEE7__allocB8ue170006Ev, symObjAddr: 0x7320, symBinAddr: 0x100008EA0, symSize: 0x24 }
  - { offsetInCU: 0x1F791, offset: 0x1F791, size: 0x8, addend: 0x0, symName: __ZNSt3__110unique_ptrIA_PNS_16__hash_node_baseIPNS_11__hash_nodeINS_12basic_stringIcNS_11char_traitsIcEENS_9allocatorIcEEEEPvEEEENS_25__bucket_list_deallocatorINS6_ISD_EEEEE5resetB8ue170006IPSD_EENS_9enable_ifIXsr28_CheckArrayPointerConversionIT_EE5valueEvE4typeESM_, symObjAddr: 0x7344, symBinAddr: 0x100008EC4, symSize: 0x78 }
  - { offsetInCU: 0x1F7DE, offset: 0x1F7DE, size: 0x8, addend: 0x0, symName: __ZNSt3__116allocator_traitsINS_9allocatorIPNS_16__hash_node_baseIPNS_11__hash_nodeINS_12basic_stringIcNS_11char_traitsIcEENS1_IcEEEEPvEEEEEEE8allocateB8ue170006ERSE_m, symObjAddr: 0x73BC, symBinAddr: 0x100008F3C, symSize: 0x2C }
  - { offsetInCU: 0x1F811, offset: 0x1F811, size: 0x8, addend: 0x0, symName: __ZNSt3__125__bucket_list_deallocatorINS_9allocatorIPNS_16__hash_node_baseIPNS_11__hash_nodeINS_12basic_stringIcNS_11char_traitsIcEENS1_IcEEEEPvEEEEEEE4sizeB8ue170006Ev, symObjAddr: 0x73E8, symBinAddr: 0x100008F68, symSize: 0x24 }
  - { offsetInCU: 0x1F837, offset: 0x1F837, size: 0x8, addend: 0x0, symName: __ZNSt3__117__compressed_pairIPPNS_16__hash_node_baseIPNS_11__hash_nodeINS_12basic_stringIcNS_11char_traitsIcEENS_9allocatorIcEEEEPvEEEENS_25__bucket_list_deallocatorINS6_ISD_EEEEE6secondB8ue170006Ev, symObjAddr: 0x740C, symBinAddr: 0x100008F8C, symSize: 0x28 }
  - { offsetInCU: 0x1F85D, offset: 0x1F85D, size: 0x8, addend: 0x0, symName: __ZNSt3__122__compressed_pair_elemINS_25__bucket_list_deallocatorINS_9allocatorIPNS_16__hash_node_baseIPNS_11__hash_nodeINS_12basic_stringIcNS_11char_traitsIcEENS2_IcEEEEPvEEEEEEEELi1ELb0EE5__getB8ue170006Ev, symObjAddr: 0x7434, symBinAddr: 0x100008FB4, symSize: 0x14 }
  - { offsetInCU: 0x1F883, offset: 0x1F883, size: 0x8, addend: 0x0, symName: __ZNSt3__117__compressed_pairImNS_9allocatorIPNS_16__hash_node_baseIPNS_11__hash_nodeINS_12basic_stringIcNS_11char_traitsIcEENS1_IcEEEEPvEEEEEEE6secondB8ue170006Ev, symObjAddr: 0x7448, symBinAddr: 0x100008FC8, symSize: 0x24 }
  - { offsetInCU: 0x1F8A9, offset: 0x1F8A9, size: 0x8, addend: 0x0, symName: __ZNSt3__122__compressed_pair_elemINS_9allocatorIPNS_16__hash_node_baseIPNS_11__hash_nodeINS_12basic_stringIcNS_11char_traitsIcEENS1_IcEEEEPvEEEEEELi1ELb1EE5__getB8ue170006Ev, symObjAddr: 0x746C, symBinAddr: 0x100008FEC, symSize: 0x14 }
  - { offsetInCU: 0x1F8CF, offset: 0x1F8CF, size: 0x8, addend: 0x0, symName: __ZNSt3__117__compressed_pairIPPNS_16__hash_node_baseIPNS_11__hash_nodeINS_12basic_stringIcNS_11char_traitsIcEENS_9allocatorIcEEEEPvEEEENS_25__bucket_list_deallocatorINS6_ISD_EEEEE5firstB8ue170006Ev, symObjAddr: 0x7480, symBinAddr: 0x100009000, symSize: 0x24 }
  - { offsetInCU: 0x1F8F5, offset: 0x1F8F5, size: 0x8, addend: 0x0, symName: __ZNSt3__125__bucket_list_deallocatorINS_9allocatorIPNS_16__hash_node_baseIPNS_11__hash_nodeINS_12basic_stringIcNS_11char_traitsIcEENS1_IcEEEEPvEEEEEEEclB8ue170006EPSD_, symObjAddr: 0x74A4, symBinAddr: 0x100009024, symSize: 0x58 }
  - { offsetInCU: 0x1F92A, offset: 0x1F92A, size: 0x8, addend: 0x0, symName: __ZNSt3__122__compressed_pair_elemIPPNS_16__hash_node_baseIPNS_11__hash_nodeINS_12basic_stringIcNS_11char_traitsIcEENS_9allocatorIcEEEEPvEEEELi0ELb0EE5__getB8ue170006Ev, symObjAddr: 0x74FC, symBinAddr: 0x10000907C, symSize: 0x14 }
  - { offsetInCU: 0x1F950, offset: 0x1F950, size: 0x8, addend: 0x0, symName: __ZNSt3__116allocator_traitsINS_9allocatorIPNS_16__hash_node_baseIPNS_11__hash_nodeINS_12basic_stringIcNS_11char_traitsIcEENS1_IcEEEEPvEEEEEEE10deallocateB8ue170006ERSE_PSD_m, symObjAddr: 0x7510, symBinAddr: 0x100009090, symSize: 0x34 }
  - { offsetInCU: 0x1F992, offset: 0x1F992, size: 0x8, addend: 0x0, symName: __ZNSt3__19allocatorIPNS_16__hash_node_baseIPNS_11__hash_nodeINS_12basic_stringIcNS_11char_traitsIcEENS0_IcEEEEPvEEEEE10deallocateB8ue170006EPSC_m, symObjAddr: 0x7544, symBinAddr: 0x1000090C4, symSize: 0x40 }
  - { offsetInCU: 0x1F9D4, offset: 0x1F9D4, size: 0x8, addend: 0x0, symName: __ZNSt3__19allocatorIPNS_16__hash_node_baseIPNS_11__hash_nodeINS_12basic_stringIcNS_11char_traitsIcEENS0_IcEEEEPvEEEEE8allocateB8ue170006Em, symObjAddr: 0x7600, symBinAddr: 0x100009180, symSize: 0x58 }
  - { offsetInCU: 0x1FA12, offset: 0x1FA12, size: 0x8, addend: 0x0, symName: __ZNSt3__116allocator_traitsINS_9allocatorIPNS_16__hash_node_baseIPNS_11__hash_nodeINS_12basic_stringIcNS_11char_traitsIcEENS1_IcEEEEPvEEEEEEE8max_sizeB8ue170006ISE_vEEmRKSE_, symObjAddr: 0x7658, symBinAddr: 0x1000091D8, symSize: 0x24 }
  - { offsetInCU: 0x1FA40, offset: 0x1FA40, size: 0x8, addend: 0x0, symName: __ZNKSt3__19allocatorIPNS_16__hash_node_baseIPNS_11__hash_nodeINS_12basic_stringIcNS_11char_traitsIcEENS0_IcEEEEPvEEEEE8max_sizeB8ue170006Ev, symObjAddr: 0x767C, symBinAddr: 0x1000091FC, symSize: 0x14 }
  - { offsetInCU: 0x1FA66, offset: 0x1FA66, size: 0x8, addend: 0x0, symName: __ZNSt3__117__compressed_pairImNS_9allocatorIPNS_16__hash_node_baseIPNS_11__hash_nodeINS_12basic_stringIcNS_11char_traitsIcEENS1_IcEEEEPvEEEEEEE5firstB8ue170006Ev, symObjAddr: 0x7690, symBinAddr: 0x100009210, symSize: 0x24 }
  - { offsetInCU: 0x1FA96, offset: 0x1FA96, size: 0x8, addend: 0x0, symName: __ZNKSt3__16__lessIvvEclB8ue170006ImmEEbRKT_RKT0_, symObjAddr: 0x7724, symBinAddr: 0x1000092A4, symSize: 0x34 }
  - { offsetInCU: 0x1FAEA, offset: 0x1FAEA, size: 0x8, addend: 0x0, symName: __ZNSt3__122__compressed_pair_elemINS_16__hash_node_baseIPNS_11__hash_nodeINS_12basic_stringIcNS_11char_traitsIcEENS_9allocatorIcEEEEPvEEEELi0ELb0EE5__getB8ue170006Ev, symObjAddr: 0x7758, symBinAddr: 0x1000092D8, symSize: 0x14 }
  - { offsetInCU: 0x1FB10, offset: 0x1FB10, size: 0x8, addend: 0x0, symName: __ZNKSt3__117__compressed_pairIPNS_11__hash_nodeINS_12basic_stringIcNS_11char_traitsIcEENS_9allocatorIcEEEEPvEENS_22__hash_node_destructorINS5_IS9_EEEEE5firstB8ue170006Ev, symObjAddr: 0x776C, symBinAddr: 0x1000092EC, symSize: 0x24 }
  - { offsetInCU: 0x1FB36, offset: 0x1FB36, size: 0x8, addend: 0x0, symName: __ZNKSt3__122__compressed_pair_elemIPNS_11__hash_nodeINS_12basic_stringIcNS_11char_traitsIcEENS_9allocatorIcEEEEPvEELi0ELb0EE5__getB8ue170006Ev, symObjAddr: 0x7790, symBinAddr: 0x100009310, symSize: 0x14 }
  - { offsetInCU: 0x1FB5C, offset: 0x1FB5C, size: 0x8, addend: 0x0, symName: __ZNSt3__117__compressed_pairIPNS_11__hash_nodeINS_12basic_stringIcNS_11char_traitsIcEENS_9allocatorIcEEEEPvEENS_22__hash_node_destructorINS5_IS9_EEEEE5firstB8ue170006Ev, symObjAddr: 0x77A4, symBinAddr: 0x100009324, symSize: 0x24 }
  - { offsetInCU: 0x1FB82, offset: 0x1FB82, size: 0x8, addend: 0x0, symName: __ZNSt3__122__compressed_pair_elemIPNS_11__hash_nodeINS_12basic_stringIcNS_11char_traitsIcEENS_9allocatorIcEEEEPvEELi0ELb0EE5__getB8ue170006Ev, symObjAddr: 0x77C8, symBinAddr: 0x100009348, symSize: 0x14 }
  - { offsetInCU: 0x1FBA8, offset: 0x1FBA8, size: 0x8, addend: 0x0, symName: __ZNSt3__110unique_ptrINS_11__hash_nodeINS_12basic_stringIcNS_11char_traitsIcEENS_9allocatorIcEEEEPvEENS_22__hash_node_destructorINS5_IS9_EEEEED2B8ue170006Ev, symObjAddr: 0x77DC, symBinAddr: 0x10000935C, symSize: 0x30 }
  - { offsetInCU: 0x1FBD2, offset: 0x1FBD2, size: 0x8, addend: 0x0, symName: __ZNSt3__110unique_ptrINS_11__hash_nodeINS_12basic_stringIcNS_11char_traitsIcEENS_9allocatorIcEEEEPvEENS_22__hash_node_destructorINS5_IS9_EEEEE5resetB8ue170006EPS9_, symObjAddr: 0x780C, symBinAddr: 0x10000938C, symSize: 0x78 }
  - { offsetInCU: 0x1FC16, offset: 0x1FC16, size: 0x8, addend: 0x0, symName: __ZNSt3__122__hash_node_destructorINS_9allocatorINS_11__hash_nodeINS_12basic_stringIcNS_11char_traitsIcEENS1_IcEEEEPvEEEEEclB8ue170006EPS9_, symObjAddr: 0x7884, symBinAddr: 0x100009404, symSize: 0x90 }
  - { offsetInCU: 0x1FC4B, offset: 0x1FC4B, size: 0x8, addend: 0x0, symName: __ZNSt3__116allocator_traitsINS_9allocatorINS_11__hash_nodeINS_12basic_stringIcNS_11char_traitsIcEENS1_IcEEEEPvEEEEE7destroyB8ue170006IS7_vvEEvRSA_PT_, symObjAddr: 0x7914, symBinAddr: 0x100009494, symSize: 0x28 }
  - { offsetInCU: 0x1FC85, offset: 0x1FC85, size: 0x8, addend: 0x0, symName: __ZNSt3__116allocator_traitsINS_9allocatorINS_11__hash_nodeINS_12basic_stringIcNS_11char_traitsIcEENS1_IcEEEEPvEEEEE10deallocateB8ue170006ERSA_PS9_m, symObjAddr: 0x793C, symBinAddr: 0x1000094BC, symSize: 0x34 }
  - { offsetInCU: 0x1FCC7, offset: 0x1FCC7, size: 0x8, addend: 0x0, symName: __ZNSt3__19allocatorINS_11__hash_nodeINS_12basic_stringIcNS_11char_traitsIcEENS0_IcEEEEPvEEE10deallocateB8ue170006EPS8_m, symObjAddr: 0x7970, symBinAddr: 0x1000094F0, symSize: 0x44 }
  - { offsetInCU: 0x1FD09, offset: 0x1FD09, size: 0x8, addend: 0x0, symName: __ZNSt3__115__hash_iteratorIPNS_11__hash_nodeINS_12basic_stringIcNS_11char_traitsIcEENS_9allocatorIcEEEEPvEEEC2B8ue170006EPNS_16__hash_node_baseISA_EE, symObjAddr: 0x79B4, symBinAddr: 0x100009534, symSize: 0x20 }
  - { offsetInCU: 0x1FD42, offset: 0x1FD42, size: 0x8, addend: 0x0, symName: __ZNSt3__14pairINS_15__hash_iteratorIPNS_11__hash_nodeINS_12basic_stringIcNS_11char_traitsIcEENS_9allocatorIcEEEEPvEEEEbEC2B8ue170006ISC_RbLS9_0EEEOT_OT0_, symObjAddr: 0x79D4, symBinAddr: 0x100009554, symSize: 0x38 }
  - { offsetInCU: 0x1FDA0, offset: 0x1FDA0, size: 0x8, addend: 0x0, symName: __ZNSt3__14pairINS_21__hash_const_iteratorIPNS_11__hash_nodeINS_12basic_stringIcNS_11char_traitsIcEENS_9allocatorIcEEEEPvEEEEbEC2B8ue170006INS_15__hash_iteratorISB_EEbLS9_0EEEONS0_IT_T0_EE, symObjAddr: 0x7A0C, symBinAddr: 0x10000958C, symSize: 0x44 }
  - { offsetInCU: 0x1FDF1, offset: 0x1FDF1, size: 0x8, addend: 0x0, symName: __ZNSt3__121__hash_const_iteratorIPNS_11__hash_nodeINS_12basic_stringIcNS_11char_traitsIcEENS_9allocatorIcEEEEPvEEEC1B8ue170006ERKNS_15__hash_iteratorISA_EE, symObjAddr: 0x7A50, symBinAddr: 0x1000095D0, symSize: 0x34 }
  - { offsetInCU: 0x1FE2A, offset: 0x1FE2A, size: 0x8, addend: 0x0, symName: __ZNSt3__121__hash_const_iteratorIPNS_11__hash_nodeINS_12basic_stringIcNS_11char_traitsIcEENS_9allocatorIcEEEEPvEEEC2B8ue170006ERKNS_15__hash_iteratorISA_EE, symObjAddr: 0x7A84, symBinAddr: 0x100009604, symSize: 0x24 }
  - { offsetInCU: 0x1FE63, offset: 0x1FE63, size: 0x8, addend: 0x0, symName: __ZNKSt3__112__hash_tableINS_17__hash_value_typeINS_12basic_stringIcNS_11char_traitsIcEENS_9allocatorIcEEEEiEENS_22__unordered_map_hasherIS7_S8_NS_4hashIS7_EENS_8equal_toIS7_EELb1EEENS_21__unordered_map_equalIS7_S8_SD_SB_Lb1EEENS5_IS8_EEE14__count_uniqueIS7_EEmRKT_, symObjAddr: 0x7AA8, symBinAddr: 0x100009628, symSize: 0x64 }
  - { offsetInCU: 0x1FEA3, offset: 0x1FEA3, size: 0x8, addend: 0x0, symName: __ZNKSt3__112__hash_tableINS_17__hash_value_typeINS_12basic_stringIcNS_11char_traitsIcEENS_9allocatorIcEEEEiEENS_22__unordered_map_hasherIS7_S8_NS_4hashIS7_EENS_8equal_toIS7_EELb1EEENS_21__unordered_map_equalIS7_S8_SD_SB_Lb1EEENS5_IS8_EEE4findIS7_EENS_21__hash_const_iteratorIPNS_11__hash_nodeIS8_PvEEEERKT_, symObjAddr: 0x7B40, symBinAddr: 0x1000096C0, symSize: 0x1B8 }
  - { offsetInCU: 0x1FF2E, offset: 0x1FF2E, size: 0x8, addend: 0x0, symName: __ZNKSt3__112__hash_tableINS_17__hash_value_typeINS_12basic_stringIcNS_11char_traitsIcEENS_9allocatorIcEEEEiEENS_22__unordered_map_hasherIS7_S8_NS_4hashIS7_EENS_8equal_toIS7_EELb1EEENS_21__unordered_map_equalIS7_S8_SD_SB_Lb1EEENS5_IS8_EEE3endEv, symObjAddr: 0x7CF8, symBinAddr: 0x100009878, symSize: 0x2C }
  - { offsetInCU: 0x1FF56, offset: 0x1FF56, size: 0x8, addend: 0x0, symName: __ZNKSt3__112__hash_tableINS_17__hash_value_typeINS_12basic_stringIcNS_11char_traitsIcEENS_9allocatorIcEEEEiEENS_22__unordered_map_hasherIS7_S8_NS_4hashIS7_EENS_8equal_toIS7_EELb1EEENS_21__unordered_map_equalIS7_S8_SD_SB_Lb1EEENS5_IS8_EEE13hash_functionB8ue170006Ev, symObjAddr: 0x7D54, symBinAddr: 0x1000098D4, symSize: 0x28 }
  - { offsetInCU: 0x1FF7C, offset: 0x1FF7C, size: 0x8, addend: 0x0, symName: __ZNKSt3__122__unordered_map_hasherINS_12basic_stringIcNS_11char_traitsIcEENS_9allocatorIcEEEENS_17__hash_value_typeIS6_iEENS_4hashIS6_EENS_8equal_toIS6_EELb1EEclB8ue170006ERKS6_, symObjAddr: 0x7D7C, symBinAddr: 0x1000098FC, symSize: 0x2C }
  - { offsetInCU: 0x1FFB1, offset: 0x1FFB1, size: 0x8, addend: 0x0, symName: __ZNKSt3__112__hash_tableINS_17__hash_value_typeINS_12basic_stringIcNS_11char_traitsIcEENS_9allocatorIcEEEEiEENS_22__unordered_map_hasherIS7_S8_NS_4hashIS7_EENS_8equal_toIS7_EELb1EEENS_21__unordered_map_equalIS7_S8_SD_SB_Lb1EEENS5_IS8_EEE12bucket_countB8ue170006Ev, symObjAddr: 0x7DA8, symBinAddr: 0x100009928, symSize: 0x28 }
  - { offsetInCU: 0x1FFD7, offset: 0x1FFD7, size: 0x8, addend: 0x0, symName: __ZNKSt3__110unique_ptrIA_PNS_16__hash_node_baseIPNS_11__hash_nodeINS_17__hash_value_typeINS_12basic_stringIcNS_11char_traitsIcEENS_9allocatorIcEEEEiEEPvEEEENS_25__bucket_list_deallocatorINS7_ISF_EEEEEixB8ue170006Em, symObjAddr: 0x7DD0, symBinAddr: 0x100009950, symSize: 0x34 }
  - { offsetInCU: 0x2000C, offset: 0x2000C, size: 0x8, addend: 0x0, symName: __ZNKSt3__116__hash_node_baseIPNS_11__hash_nodeINS_17__hash_value_typeINS_12basic_stringIcNS_11char_traitsIcEENS_9allocatorIcEEEEiEEPvEEE6__hashB8ue170006Ev, symObjAddr: 0x7E04, symBinAddr: 0x100009984, symSize: 0x18 }
  - { offsetInCU: 0x20032, offset: 0x20032, size: 0x8, addend: 0x0, symName: __ZNKSt3__112__hash_tableINS_17__hash_value_typeINS_12basic_stringIcNS_11char_traitsIcEENS_9allocatorIcEEEEiEENS_22__unordered_map_hasherIS7_S8_NS_4hashIS7_EENS_8equal_toIS7_EELb1EEENS_21__unordered_map_equalIS7_S8_SD_SB_Lb1EEENS5_IS8_EEE6key_eqB8ue170006Ev, symObjAddr: 0x7E1C, symBinAddr: 0x10000999C, symSize: 0x28 }
  - { offsetInCU: 0x20058, offset: 0x20058, size: 0x8, addend: 0x0, symName: __ZNKSt3__121__unordered_map_equalINS_12basic_stringIcNS_11char_traitsIcEENS_9allocatorIcEEEENS_17__hash_value_typeIS6_iEENS_8equal_toIS6_EENS_4hashIS6_EELb1EEclB8ue170006ERKS8_RKS6_, symObjAddr: 0x7E44, symBinAddr: 0x1000099C4, symSize: 0x48 }
  - { offsetInCU: 0x2009C, offset: 0x2009C, size: 0x8, addend: 0x0, symName: __ZNSt3__116__hash_node_baseIPNS_11__hash_nodeINS_17__hash_value_typeINS_12basic_stringIcNS_11char_traitsIcEENS_9allocatorIcEEEEiEEPvEEE8__upcastB8ue170006Ev, symObjAddr: 0x7E8C, symBinAddr: 0x100009A0C, symSize: 0x24 }
  - { offsetInCU: 0x200C2, offset: 0x200C2, size: 0x8, addend: 0x0, symName: __ZNSt3__121__hash_const_iteratorIPNS_11__hash_nodeINS_17__hash_value_typeINS_12basic_stringIcNS_11char_traitsIcEENS_9allocatorIcEEEEiEEPvEEEC1B8ue170006EPNS_16__hash_node_baseISC_EE, symObjAddr: 0x7EB0, symBinAddr: 0x100009A30, symSize: 0x34 }
  - { offsetInCU: 0x200FB, offset: 0x200FB, size: 0x8, addend: 0x0, symName: __ZNKSt3__117__compressed_pairImNS_22__unordered_map_hasherINS_12basic_stringIcNS_11char_traitsIcEENS_9allocatorIcEEEENS_17__hash_value_typeIS7_iEENS_4hashIS7_EENS_8equal_toIS7_EELb1EEEE6secondB8ue170006Ev, symObjAddr: 0x7EE4, symBinAddr: 0x100009A64, symSize: 0x24 }
  - { offsetInCU: 0x20121, offset: 0x20121, size: 0x8, addend: 0x0, symName: __ZNKSt3__122__compressed_pair_elemINS_22__unordered_map_hasherINS_12basic_stringIcNS_11char_traitsIcEENS_9allocatorIcEEEENS_17__hash_value_typeIS7_iEENS_4hashIS7_EENS_8equal_toIS7_EELb1EEELi1ELb1EE5__getB8ue170006Ev, symObjAddr: 0x7F08, symBinAddr: 0x100009A88, symSize: 0x14 }
  - { offsetInCU: 0x20147, offset: 0x20147, size: 0x8, addend: 0x0, symName: __ZNKSt3__110unique_ptrIA_PNS_16__hash_node_baseIPNS_11__hash_nodeINS_17__hash_value_typeINS_12basic_stringIcNS_11char_traitsIcEENS_9allocatorIcEEEEiEEPvEEEENS_25__bucket_list_deallocatorINS7_ISF_EEEEE11get_deleterB8ue170006Ev, symObjAddr: 0x7F1C, symBinAddr: 0x100009A9C, symSize: 0x24 }
  - { offsetInCU: 0x2016D, offset: 0x2016D, size: 0x8, addend: 0x0, symName: __ZNKSt3__125__bucket_list_deallocatorINS_9allocatorIPNS_16__hash_node_baseIPNS_11__hash_nodeINS_17__hash_value_typeINS_12basic_stringIcNS_11char_traitsIcEENS1_IcEEEEiEEPvEEEEEEE4sizeB8ue170006Ev, symObjAddr: 0x7F40, symBinAddr: 0x100009AC0, symSize: 0x28 }
  - { offsetInCU: 0x20193, offset: 0x20193, size: 0x8, addend: 0x0, symName: __ZNKSt3__117__compressed_pairIPPNS_16__hash_node_baseIPNS_11__hash_nodeINS_17__hash_value_typeINS_12basic_stringIcNS_11char_traitsIcEENS_9allocatorIcEEEEiEEPvEEEENS_25__bucket_list_deallocatorINS7_ISF_EEEEE6secondB8ue170006Ev, symObjAddr: 0x7F68, symBinAddr: 0x100009AE8, symSize: 0x28 }
  - { offsetInCU: 0x201B9, offset: 0x201B9, size: 0x8, addend: 0x0, symName: __ZNKSt3__122__compressed_pair_elemINS_25__bucket_list_deallocatorINS_9allocatorIPNS_16__hash_node_baseIPNS_11__hash_nodeINS_17__hash_value_typeINS_12basic_stringIcNS_11char_traitsIcEENS2_IcEEEEiEEPvEEEEEEEELi1ELb0EE5__getB8ue170006Ev, symObjAddr: 0x7F90, symBinAddr: 0x100009B10, symSize: 0x14 }
  - { offsetInCU: 0x201DF, offset: 0x201DF, size: 0x8, addend: 0x0, symName: __ZNKSt3__117__compressed_pairImNS_9allocatorIPNS_16__hash_node_baseIPNS_11__hash_nodeINS_17__hash_value_typeINS_12basic_stringIcNS_11char_traitsIcEENS1_IcEEEEiEEPvEEEEEEE5firstB8ue170006Ev, symObjAddr: 0x7FA4, symBinAddr: 0x100009B24, symSize: 0x24 }
  - { offsetInCU: 0x20205, offset: 0x20205, size: 0x8, addend: 0x0, symName: __ZNKSt3__117__compressed_pairIPPNS_16__hash_node_baseIPNS_11__hash_nodeINS_17__hash_value_typeINS_12basic_stringIcNS_11char_traitsIcEENS_9allocatorIcEEEEiEEPvEEEENS_25__bucket_list_deallocatorINS7_ISF_EEEEE5firstB8ue170006Ev, symObjAddr: 0x7FC8, symBinAddr: 0x100009B48, symSize: 0x24 }
  - { offsetInCU: 0x2022B, offset: 0x2022B, size: 0x8, addend: 0x0, symName: __ZNKSt3__122__compressed_pair_elemIPPNS_16__hash_node_baseIPNS_11__hash_nodeINS_17__hash_value_typeINS_12basic_stringIcNS_11char_traitsIcEENS_9allocatorIcEEEEiEEPvEEEELi0ELb0EE5__getB8ue170006Ev, symObjAddr: 0x7FEC, symBinAddr: 0x100009B6C, symSize: 0x14 }
  - { offsetInCU: 0x20251, offset: 0x20251, size: 0x8, addend: 0x0, symName: __ZNKSt3__117__compressed_pairIfNS_21__unordered_map_equalINS_12basic_stringIcNS_11char_traitsIcEENS_9allocatorIcEEEENS_17__hash_value_typeIS7_iEENS_8equal_toIS7_EENS_4hashIS7_EELb1EEEE6secondB8ue170006Ev, symObjAddr: 0x8000, symBinAddr: 0x100009B80, symSize: 0x24 }
  - { offsetInCU: 0x20277, offset: 0x20277, size: 0x8, addend: 0x0, symName: __ZNKSt3__122__compressed_pair_elemINS_21__unordered_map_equalINS_12basic_stringIcNS_11char_traitsIcEENS_9allocatorIcEEEENS_17__hash_value_typeIS7_iEENS_8equal_toIS7_EENS_4hashIS7_EELb1EEELi1ELb1EE5__getB8ue170006Ev, symObjAddr: 0x8024, symBinAddr: 0x100009BA4, symSize: 0x14 }
  - { offsetInCU: 0x2029D, offset: 0x2029D, size: 0x8, addend: 0x0, symName: __ZNKSt3__117__hash_value_typeINS_12basic_stringIcNS_11char_traitsIcEENS_9allocatorIcEEEEiE11__get_valueB8ue170006Ev, symObjAddr: 0x8038, symBinAddr: 0x100009BB8, symSize: 0x14 }
  - { offsetInCU: 0x202C3, offset: 0x202C3, size: 0x8, addend: 0x0, symName: __ZNSt3__114pointer_traitsIPNS_16__hash_node_baseIPNS_11__hash_nodeINS_17__hash_value_typeINS_12basic_stringIcNS_11char_traitsIcEENS_9allocatorIcEEEEiEEPvEEEEE10pointer_toB8ue170006ERSE_, symObjAddr: 0x804C, symBinAddr: 0x100009BCC, symSize: 0x14 }
  - { offsetInCU: 0x202E6, offset: 0x202E6, size: 0x8, addend: 0x0, symName: __ZNSt3__121__hash_const_iteratorIPNS_11__hash_nodeINS_17__hash_value_typeINS_12basic_stringIcNS_11char_traitsIcEENS_9allocatorIcEEEEiEEPvEEEC2B8ue170006EPNS_16__hash_node_baseISC_EE, symObjAddr: 0x8060, symBinAddr: 0x100009BE0, symSize: 0x20 }
  - { offsetInCU: 0x2031F, offset: 0x2031F, size: 0x8, addend: 0x0, symName: __ZNKSt3__16vectorIN5graph6vertexENS_9allocatorIS2_EEE4sizeB8ue170006Ev, symObjAddr: 0x8080, symBinAddr: 0x100009C00, symSize: 0x28 }
  - { offsetInCU: 0x20345, offset: 0x20345, size: 0x8, addend: 0x0, symName: __ZNSt3__16vectorIN5graph6vertexENS_9allocatorIS2_EEE9push_backB8ue170006EOS2_, symObjAddr: 0x80A8, symBinAddr: 0x100009C28, symSize: 0x6C }
  - { offsetInCU: 0x2037C, offset: 0x2037C, size: 0x8, addend: 0x0, symName: __ZN5graph6vertexC1EiNSt3__112basic_stringIcNS1_11char_traitsIcEENS1_9allocatorIcEEEE, symObjAddr: 0x8114, symBinAddr: 0x100009C94, symSize: 0x3C }
  - { offsetInCU: 0x203C3, offset: 0x203C3, size: 0x8, addend: 0x0, symName: __ZN5graph6vertexD1Ev, symObjAddr: 0x8150, symBinAddr: 0x100009CD0, symSize: 0x2C }
  - { offsetInCU: 0x203EF, offset: 0x203EF, size: 0x8, addend: 0x0, symName: __ZNSt3__16vectorIN5graph6vertexENS_9allocatorIS2_EEE9__end_capB8ue170006Ev, symObjAddr: 0x817C, symBinAddr: 0x100009CFC, symSize: 0x28 }
  - { offsetInCU: 0x2041A, offset: 0x2041A, size: 0x8, addend: 0x0, symName: __ZNSt3__16vectorIN5graph6vertexENS_9allocatorIS2_EEE22__construct_one_at_endB8ue170006IJS2_EEEvDpOT_, symObjAddr: 0x81A4, symBinAddr: 0x100009D24, symSize: 0x90 }
  - { offsetInCU: 0x20469, offset: 0x20469, size: 0x8, addend: 0x0, symName: __ZNSt3__16vectorIN5graph6vertexENS_9allocatorIS2_EEE21__push_back_slow_pathIS2_EEvOT_, symObjAddr: 0x8234, symBinAddr: 0x100009DB4, symSize: 0xD8 }
  - { offsetInCU: 0x204C7, offset: 0x204C7, size: 0x8, addend: 0x0, symName: __ZNSt3__117__compressed_pairIPN5graph6vertexENS_9allocatorIS2_EEE5firstB8ue170006Ev, symObjAddr: 0x830C, symBinAddr: 0x100009E8C, symSize: 0x24 }
  - { offsetInCU: 0x204ED, offset: 0x204ED, size: 0x8, addend: 0x0, symName: __ZNSt3__122__compressed_pair_elemIPN5graph6vertexELi0ELb0EE5__getB8ue170006Ev, symObjAddr: 0x8330, symBinAddr: 0x100009EB0, symSize: 0x14 }
  - { offsetInCU: 0x2052C, offset: 0x2052C, size: 0x8, addend: 0x0, symName: __ZNSt3__16vectorIN5graph6vertexENS_9allocatorIS2_EEE21_ConstructTransactionC1B8ue170006ERS5_m, symObjAddr: 0x8344, symBinAddr: 0x100009EC4, symSize: 0x3C }
  - { offsetInCU: 0x20574, offset: 0x20574, size: 0x8, addend: 0x0, symName: __ZNSt3__116allocator_traitsINS_9allocatorIN5graph6vertexEEEE9constructB8ue170006IS3_JS3_EvEEvRS4_PT_DpOT0_, symObjAddr: 0x8380, symBinAddr: 0x100009F00, symSize: 0x34 }
  - { offsetInCU: 0x205CB, offset: 0x205CB, size: 0x8, addend: 0x0, symName: __ZNSt3__16vectorIN5graph6vertexENS_9allocatorIS2_EEE7__allocB8ue170006Ev, symObjAddr: 0x83B4, symBinAddr: 0x100009F34, symSize: 0x28 }
  - { offsetInCU: 0x205F1, offset: 0x205F1, size: 0x8, addend: 0x0, symName: __ZNSt3__16vectorIN5graph6vertexENS_9allocatorIS2_EEE21_ConstructTransactionD1B8ue170006Ev, symObjAddr: 0x83F0, symBinAddr: 0x100009F70, symSize: 0x2C }
  - { offsetInCU: 0x2061B, offset: 0x2061B, size: 0x8, addend: 0x0, symName: __ZNSt3__16vectorIN5graph6vertexENS_9allocatorIS2_EEE21_ConstructTransactionC2B8ue170006ERS5_m, symObjAddr: 0x841C, symBinAddr: 0x100009F9C, symSize: 0x4C }
  - { offsetInCU: 0x20663, offset: 0x20663, size: 0x8, addend: 0x0, symName: __ZNSt3__19allocatorIN5graph6vertexEE9constructB8ue170006IS2_JS2_EEEvPT_DpOT0_, symObjAddr: 0x8468, symBinAddr: 0x100009FE8, symSize: 0x30 }
  - { offsetInCU: 0x206B9, offset: 0x206B9, size: 0x8, addend: 0x0, symName: __ZN5graph6vertexC1EOS0_, symObjAddr: 0x8498, symBinAddr: 0x10000A018, symSize: 0x34 }
  - { offsetInCU: 0x206EE, offset: 0x206EE, size: 0x8, addend: 0x0, symName: __ZN5graph6vertexC2EOS0_, symObjAddr: 0x84CC, symBinAddr: 0x10000A04C, symSize: 0x70 }
  - { offsetInCU: 0x20723, offset: 0x20723, size: 0x8, addend: 0x0, symName: __ZNSt3__16vectorIN5graph4edgeENS_9allocatorIS2_EEEC1B8ue170006EOS5_, symObjAddr: 0x853C, symBinAddr: 0x10000A0BC, symSize: 0x34 }
  - { offsetInCU: 0x2075E, offset: 0x2075E, size: 0x8, addend: 0x0, symName: __ZNSt3__16vectorIN5graph4edgeENS_9allocatorIS2_EEEC2B8ue170006EOS5_, symObjAddr: 0x8570, symBinAddr: 0x10000A0F0, symSize: 0xC4 }
  - { offsetInCU: 0x20799, offset: 0x20799, size: 0x8, addend: 0x0, symName: __ZNSt3__16vectorIN5graph4edgeENS_9allocatorIS2_EEE7__allocB8ue170006Ev, symObjAddr: 0x8634, symBinAddr: 0x10000A1B4, symSize: 0x28 }
  - { offsetInCU: 0x207C4, offset: 0x207C4, size: 0x8, addend: 0x0, symName: __ZNSt3__117__compressed_pairIPN5graph4edgeENS_9allocatorIS2_EEEC1B8ue170006IDnS5_EEOT_OT0_, symObjAddr: 0x865C, symBinAddr: 0x10000A1DC, symSize: 0x3C }
  - { offsetInCU: 0x2081C, offset: 0x2081C, size: 0x8, addend: 0x0, symName: __ZNSt3__16vectorIN5graph4edgeENS_9allocatorIS2_EEE9__end_capB8ue170006Ev, symObjAddr: 0x8698, symBinAddr: 0x10000A218, symSize: 0x28 }
  - { offsetInCU: 0x20842, offset: 0x20842, size: 0x8, addend: 0x0, symName: __ZNSt3__117__compressed_pairIPN5graph4edgeENS_9allocatorIS2_EEE6secondB8ue170006Ev, symObjAddr: 0x86C0, symBinAddr: 0x10000A240, symSize: 0x24 }
  - { offsetInCU: 0x20868, offset: 0x20868, size: 0x8, addend: 0x0, symName: __ZNSt3__122__compressed_pair_elemINS_9allocatorIN5graph4edgeEEELi1ELb1EE5__getB8ue170006Ev, symObjAddr: 0x86E4, symBinAddr: 0x10000A264, symSize: 0x14 }
  - { offsetInCU: 0x2088E, offset: 0x2088E, size: 0x8, addend: 0x0, symName: __ZNSt3__117__compressed_pairIPN5graph4edgeENS_9allocatorIS2_EEEC2B8ue170006IDnS5_EEOT_OT0_, symObjAddr: 0x86F8, symBinAddr: 0x10000A278, symSize: 0x44 }
  - { offsetInCU: 0x208E6, offset: 0x208E6, size: 0x8, addend: 0x0, symName: __ZNSt3__122__compressed_pair_elemIPN5graph4edgeELi0ELb0EEC2B8ue170006IDnvEEOT_, symObjAddr: 0x873C, symBinAddr: 0x10000A2BC, symSize: 0x1C }
  - { offsetInCU: 0x20928, offset: 0x20928, size: 0x8, addend: 0x0, symName: __ZNSt3__122__compressed_pair_elemINS_9allocatorIN5graph4edgeEEELi1ELb1EEC2B8ue170006IS4_vEEOT_, symObjAddr: 0x8758, symBinAddr: 0x10000A2D8, symSize: 0x18 }
  - { offsetInCU: 0x2096A, offset: 0x2096A, size: 0x8, addend: 0x0, symName: __ZNSt3__117__compressed_pairIPN5graph4edgeENS_9allocatorIS2_EEE5firstB8ue170006Ev, symObjAddr: 0x8770, symBinAddr: 0x10000A2F0, symSize: 0x24 }
  - { offsetInCU: 0x20990, offset: 0x20990, size: 0x8, addend: 0x0, symName: __ZNSt3__122__compressed_pair_elemIPN5graph4edgeELi0ELb0EE5__getB8ue170006Ev, symObjAddr: 0x8794, symBinAddr: 0x10000A314, symSize: 0x14 }
  - { offsetInCU: 0x209B6, offset: 0x209B6, size: 0x8, addend: 0x0, symName: __ZNSt3__117__compressed_pairIPN5graph6vertexENS_9allocatorIS2_EEE6secondB8ue170006Ev, symObjAddr: 0x87A8, symBinAddr: 0x10000A328, symSize: 0x24 }
  - { offsetInCU: 0x209DC, offset: 0x209DC, size: 0x8, addend: 0x0, symName: __ZNSt3__122__compressed_pair_elemINS_9allocatorIN5graph6vertexEEELi1ELb1EE5__getB8ue170006Ev, symObjAddr: 0x87CC, symBinAddr: 0x10000A34C, symSize: 0x14 }
  - { offsetInCU: 0x20A02, offset: 0x20A02, size: 0x8, addend: 0x0, symName: __ZNSt3__16vectorIN5graph6vertexENS_9allocatorIS2_EEE21_ConstructTransactionD2B8ue170006Ev, symObjAddr: 0x87E0, symBinAddr: 0x10000A360, symSize: 0x20 }
  - { offsetInCU: 0x20A2C, offset: 0x20A2C, size: 0x8, addend: 0x0, symName: __ZNKSt3__16vectorIN5graph6vertexENS_9allocatorIS2_EEE11__recommendB8ue170006Em, symObjAddr: 0x8800, symBinAddr: 0x10000A380, symSize: 0xB4 }
  - { offsetInCU: 0x20A81, offset: 0x20A81, size: 0x8, addend: 0x0, symName: __ZNSt3__114__split_bufferIN5graph6vertexERNS_9allocatorIS2_EEEC1EmmS5_, symObjAddr: 0x88B4, symBinAddr: 0x10000A434, symSize: 0x44 }
  - { offsetInCU: 0x20AD7, offset: 0x20AD7, size: 0x8, addend: 0x0, symName: __ZNSt3__114__split_bufferIN5graph6vertexERNS_9allocatorIS2_EEED1Ev, symObjAddr: 0x8A08, symBinAddr: 0x10000A588, symSize: 0x2C }
  - { offsetInCU: 0x20B03, offset: 0x20B03, size: 0x8, addend: 0x0, symName: __ZNKSt3__16vectorIN5graph6vertexENS_9allocatorIS2_EEE8max_sizeEv, symObjAddr: 0x8A34, symBinAddr: 0x10000A5B4, symSize: 0x60 }
  - { offsetInCU: 0x20B2B, offset: 0x20B2B, size: 0x8, addend: 0x0, symName: __ZNKSt3__16vectorIN5graph6vertexENS_9allocatorIS2_EEE20__throw_length_errorB8ue170006Ev, symObjAddr: 0x8A94, symBinAddr: 0x10000A614, symSize: 0x1C }
  - { offsetInCU: 0x20B51, offset: 0x20B51, size: 0x8, addend: 0x0, symName: __ZNKSt3__16vectorIN5graph6vertexENS_9allocatorIS2_EEE8capacityB8ue170006Ev, symObjAddr: 0x8AB0, symBinAddr: 0x10000A630, symSize: 0x40 }
  - { offsetInCU: 0x20B81, offset: 0x20B81, size: 0x8, addend: 0x0, symName: __ZNSt3__116allocator_traitsINS_9allocatorIN5graph6vertexEEEE8max_sizeB8ue170006IS4_vEEmRKS4_, symObjAddr: 0x8B1C, symBinAddr: 0x10000A69C, symSize: 0x24 }
  - { offsetInCU: 0x20BAF, offset: 0x20BAF, size: 0x8, addend: 0x0, symName: __ZNKSt3__16vectorIN5graph6vertexENS_9allocatorIS2_EEE7__allocB8ue170006Ev, symObjAddr: 0x8B40, symBinAddr: 0x10000A6C0, symSize: 0x28 }
  - { offsetInCU: 0x20BD5, offset: 0x20BD5, size: 0x8, addend: 0x0, symName: __ZNKSt3__19allocatorIN5graph6vertexEE8max_sizeB8ue170006Ev, symObjAddr: 0x8BBC, symBinAddr: 0x10000A73C, symSize: 0x18 }
  - { offsetInCU: 0x20BFB, offset: 0x20BFB, size: 0x8, addend: 0x0, symName: __ZNKSt3__117__compressed_pairIPN5graph6vertexENS_9allocatorIS2_EEE6secondB8ue170006Ev, symObjAddr: 0x8BD4, symBinAddr: 0x10000A754, symSize: 0x24 }
  - { offsetInCU: 0x20C21, offset: 0x20C21, size: 0x8, addend: 0x0, symName: __ZNKSt3__122__compressed_pair_elemINS_9allocatorIN5graph6vertexEEELi1ELb1EE5__getB8ue170006Ev, symObjAddr: 0x8BF8, symBinAddr: 0x10000A778, symSize: 0x14 }
  - { offsetInCU: 0x20C47, offset: 0x20C47, size: 0x8, addend: 0x0, symName: __ZNKSt3__16vectorIN5graph6vertexENS_9allocatorIS2_EEE9__end_capB8ue170006Ev, symObjAddr: 0x8C0C, symBinAddr: 0x10000A78C, symSize: 0x28 }
  - { offsetInCU: 0x20C6D, offset: 0x20C6D, size: 0x8, addend: 0x0, symName: __ZNKSt3__117__compressed_pairIPN5graph6vertexENS_9allocatorIS2_EEE5firstB8ue170006Ev, symObjAddr: 0x8C34, symBinAddr: 0x10000A7B4, symSize: 0x24 }
  - { offsetInCU: 0x20C93, offset: 0x20C93, size: 0x8, addend: 0x0, symName: __ZNKSt3__122__compressed_pair_elemIPN5graph6vertexELi0ELb0EE5__getB8ue170006Ev, symObjAddr: 0x8C58, symBinAddr: 0x10000A7D8, symSize: 0x14 }
  - { offsetInCU: 0x20CB9, offset: 0x20CB9, size: 0x8, addend: 0x0, symName: __ZNSt3__114__split_bufferIN5graph6vertexERNS_9allocatorIS2_EEEC2EmmS5_, symObjAddr: 0x8C6C, symBinAddr: 0x10000A7EC, symSize: 0xE0 }
  - { offsetInCU: 0x20D2D, offset: 0x20D2D, size: 0x8, addend: 0x0, symName: __ZNSt3__117__compressed_pairIPN5graph6vertexERNS_9allocatorIS2_EEEC1B8ue170006IDnS6_EEOT_OT0_, symObjAddr: 0x8D4C, symBinAddr: 0x10000A8CC, symSize: 0x3C }
  - { offsetInCU: 0x20D85, offset: 0x20D85, size: 0x8, addend: 0x0, symName: __ZNSt3__114__split_bufferIN5graph6vertexERNS_9allocatorIS2_EEE7__allocB8ue170006Ev, symObjAddr: 0x8DC8, symBinAddr: 0x10000A948, symSize: 0x28 }
  - { offsetInCU: 0x20DAB, offset: 0x20DAB, size: 0x8, addend: 0x0, symName: __ZNSt3__114__split_bufferIN5graph6vertexERNS_9allocatorIS2_EEE9__end_capB8ue170006Ev, symObjAddr: 0x8DF0, symBinAddr: 0x10000A970, symSize: 0x28 }
  - { offsetInCU: 0x20DD1, offset: 0x20DD1, size: 0x8, addend: 0x0, symName: __ZNSt3__117__compressed_pairIPN5graph6vertexERNS_9allocatorIS2_EEEC2B8ue170006IDnS6_EEOT_OT0_, symObjAddr: 0x8E18, symBinAddr: 0x10000A998, symSize: 0x48 }
  - { offsetInCU: 0x20E29, offset: 0x20E29, size: 0x8, addend: 0x0, symName: __ZNSt3__122__compressed_pair_elemIRNS_9allocatorIN5graph6vertexEEELi1ELb0EEC2B8ue170006IS5_vEEOT_, symObjAddr: 0x8E60, symBinAddr: 0x10000A9E0, symSize: 0x20 }
  - { offsetInCU: 0x20E6B, offset: 0x20E6B, size: 0x8, addend: 0x0, symName: __ZNSt3__19allocatorIN5graph6vertexEE8allocateB8ue170006Em, symObjAddr: 0x8E80, symBinAddr: 0x10000AA00, symSize: 0x5C }
  - { offsetInCU: 0x20E9F, offset: 0x20E9F, size: 0x8, addend: 0x0, symName: __ZNSt3__117__compressed_pairIPN5graph6vertexERNS_9allocatorIS2_EEE6secondB8ue170006Ev, symObjAddr: 0x8EDC, symBinAddr: 0x10000AA5C, symSize: 0x28 }
  - { offsetInCU: 0x20EC5, offset: 0x20EC5, size: 0x8, addend: 0x0, symName: __ZNSt3__122__compressed_pair_elemIRNS_9allocatorIN5graph6vertexEEELi1ELb0EE5__getB8ue170006Ev, symObjAddr: 0x8F04, symBinAddr: 0x10000AA84, symSize: 0x18 }
  - { offsetInCU: 0x20EEB, offset: 0x20EEB, size: 0x8, addend: 0x0, symName: __ZNSt3__117__compressed_pairIPN5graph6vertexERNS_9allocatorIS2_EEE5firstB8ue170006Ev, symObjAddr: 0x8F1C, symBinAddr: 0x10000AA9C, symSize: 0x24 }
  - { offsetInCU: 0x20F11, offset: 0x20F11, size: 0x8, addend: 0x0, symName: __ZNKSt3__16vectorIN5graph6vertexENS_9allocatorIS2_EEE17__annotate_deleteB8ue170006Ev, symObjAddr: 0x8F40, symBinAddr: 0x10000AAC0, symSize: 0xD4 }
  - { offsetInCU: 0x20F37, offset: 0x20F37, size: 0x8, addend: 0x0, symName: __ZNSt3__116reverse_iteratorIPN5graph6vertexEEC1B8ue170006ES3_, symObjAddr: 0x9140, symBinAddr: 0x10000ACC0, symSize: 0x34 }
  - { offsetInCU: 0x20F6F, offset: 0x20F6F, size: 0x8, addend: 0x0, symName: __ZNKSt3__116reverse_iteratorIPN5graph6vertexEE4baseB8ue170006Ev, symObjAddr: 0x9174, symBinAddr: 0x10000ACF4, symSize: 0x18 }
  - { offsetInCU: 0x20F95, offset: 0x20F95, size: 0x8, addend: 0x0, symName: __ZNKSt3__16vectorIN5graph6vertexENS_9allocatorIS2_EEE14__annotate_newB8ue170006Em, symObjAddr: 0x91C8, symBinAddr: 0x10000AD48, symSize: 0xC8 }
  - { offsetInCU: 0x20FCA, offset: 0x20FCA, size: 0x8, addend: 0x0, symName: __ZNKSt3__16vectorIN5graph6vertexENS_9allocatorIS2_EEE31__annotate_contiguous_containerB8ue170006EPKvS7_S7_S7_, symObjAddr: 0x9290, symBinAddr: 0x10000AE10, symSize: 0x20 }
  - { offsetInCU: 0x2101C, offset: 0x2101C, size: 0x8, addend: 0x0, symName: __ZNKSt3__16vectorIN5graph6vertexENS_9allocatorIS2_EEE4dataB8ue170006Ev, symObjAddr: 0x92B0, symBinAddr: 0x10000AE30, symSize: 0x28 }
  - { offsetInCU: 0x21042, offset: 0x21042, size: 0x8, addend: 0x0, symName: __ZNSt3__129_AllocatorDestroyRangeReverseINS_9allocatorIN5graph6vertexEEENS_16reverse_iteratorIPS3_EEEC1B8ue170006ERS4_RS7_SA_, symObjAddr: 0x9324, symBinAddr: 0x10000AEA4, symSize: 0x44 }
  - { offsetInCU: 0x21099, offset: 0x21099, size: 0x8, addend: 0x0, symName: __ZNKSt3__116reverse_iteratorIPN5graph6vertexEEdeB8ue170006Ev, symObjAddr: 0x93D4, symBinAddr: 0x10000AF54, symSize: 0x28 }
  - { offsetInCU: 0x210CD, offset: 0x210CD, size: 0x8, addend: 0x0, symName: __ZNSt3__116reverse_iteratorIPN5graph6vertexEEppB8ue170006Ev, symObjAddr: 0x93FC, symBinAddr: 0x10000AF7C, symSize: 0x20 }
  - { offsetInCU: 0x210F3, offset: 0x210F3, size: 0x8, addend: 0x0, symName: __ZNSt3__128__exception_guard_exceptionsINS_29_AllocatorDestroyRangeReverseINS_9allocatorIN5graph6vertexEEENS_16reverse_iteratorIPS4_EEEEE10__completeB8ue170006Ev, symObjAddr: 0x941C, symBinAddr: 0x10000AF9C, symSize: 0x1C }
  - { offsetInCU: 0x21119, offset: 0x21119, size: 0x8, addend: 0x0, symName: __ZNSt3__128__exception_guard_exceptionsINS_29_AllocatorDestroyRangeReverseINS_9allocatorIN5graph6vertexEEENS_16reverse_iteratorIPS4_EEEEED1B8ue170006Ev, symObjAddr: 0x9438, symBinAddr: 0x10000AFB8, symSize: 0x2C }
  - { offsetInCU: 0x21143, offset: 0x21143, size: 0x8, addend: 0x0, symName: __ZNSt3__128__exception_guard_exceptionsINS_29_AllocatorDestroyRangeReverseINS_9allocatorIN5graph6vertexEEENS_16reverse_iteratorIPS4_EEEEEC1B8ue170006ES9_, symObjAddr: 0x9464, symBinAddr: 0x10000AFE4, symSize: 0x34 }
  - { offsetInCU: 0x2117C, offset: 0x2117C, size: 0x8, addend: 0x0, symName: __ZNSt3__128__exception_guard_exceptionsINS_29_AllocatorDestroyRangeReverseINS_9allocatorIN5graph6vertexEEENS_16reverse_iteratorIPS4_EEEEEC2B8ue170006ES9_, symObjAddr: 0x9498, symBinAddr: 0x10000B018, symSize: 0x30 }
  - { offsetInCU: 0x211B5, offset: 0x211B5, size: 0x8, addend: 0x0, symName: __ZNSt3__129_AllocatorDestroyRangeReverseINS_9allocatorIN5graph6vertexEEENS_16reverse_iteratorIPS3_EEEC2B8ue170006ERS4_RS7_SA_, symObjAddr: 0x94C8, symBinAddr: 0x10000B048, symSize: 0x38 }
  - { offsetInCU: 0x21211, offset: 0x21211, size: 0x8, addend: 0x0, symName: __ZNSt3__119__to_address_helperINS_16reverse_iteratorIPN5graph6vertexEEEvE6__callB8ue170006ERKS5_, symObjAddr: 0x9500, symBinAddr: 0x10000B080, symSize: 0x38 }
  - { offsetInCU: 0x21234, offset: 0x21234, size: 0x8, addend: 0x0, symName: __ZNKSt3__116reverse_iteratorIPN5graph6vertexEEptB8ue170006Ev, symObjAddr: 0x9538, symBinAddr: 0x10000B0B8, symSize: 0x24 }
  - { offsetInCU: 0x2125A, offset: 0x2125A, size: 0x8, addend: 0x0, symName: __ZNSt3__128__exception_guard_exceptionsINS_29_AllocatorDestroyRangeReverseINS_9allocatorIN5graph6vertexEEENS_16reverse_iteratorIPS4_EEEEED2B8ue170006Ev, symObjAddr: 0x955C, symBinAddr: 0x10000B0DC, symSize: 0x50 }
  - { offsetInCU: 0x21284, offset: 0x21284, size: 0x8, addend: 0x0, symName: __ZNKSt3__129_AllocatorDestroyRangeReverseINS_9allocatorIN5graph6vertexEEENS_16reverse_iteratorIPS3_EEEclB8ue170006Ev, symObjAddr: 0x95AC, symBinAddr: 0x10000B12C, symSize: 0xB4 }
  - { offsetInCU: 0x212AB, offset: 0x212AB, size: 0x8, addend: 0x0, symName: __ZNSt3__116reverse_iteratorINS0_IPN5graph6vertexEEEEC1B8ue170006ES4_, symObjAddr: 0x96D0, symBinAddr: 0x10000B250, symSize: 0x3C }
  - { offsetInCU: 0x212E3, offset: 0x212E3, size: 0x8, addend: 0x0, symName: __ZNSt3__116allocator_traitsINS_9allocatorIN5graph6vertexEEEE7destroyB8ue170006IS3_vEEvRS4_PT_, symObjAddr: 0x976C, symBinAddr: 0x10000B2EC, symSize: 0x2C }
  - { offsetInCU: 0x21320, offset: 0x21320, size: 0x8, addend: 0x0, symName: __ZNSt3__116reverse_iteratorINS0_IPN5graph6vertexEEEEppB8ue170006Ev, symObjAddr: 0x97BC, symBinAddr: 0x10000B33C, symSize: 0x30 }
  - { offsetInCU: 0x21346, offset: 0x21346, size: 0x8, addend: 0x0, symName: __ZNKSt3__116reverse_iteratorINS0_IPN5graph6vertexEEEE4baseB8ue170006Ev, symObjAddr: 0x97EC, symBinAddr: 0x10000B36C, symSize: 0x24 }
  - { offsetInCU: 0x2136C, offset: 0x2136C, size: 0x8, addend: 0x0, symName: __ZNSt3__19allocatorIN5graph6vertexEE7destroyB8ue170006EPS2_, symObjAddr: 0x9810, symBinAddr: 0x10000B390, symSize: 0x28 }
  - { offsetInCU: 0x213A5, offset: 0x213A5, size: 0x8, addend: 0x0, symName: __ZNSt3__119__to_address_helperINS_16reverse_iteratorINS1_IPN5graph6vertexEEEEEvE6__callB8ue170006ERKS6_, symObjAddr: 0x9838, symBinAddr: 0x10000B3B8, symSize: 0x38 }
  - { offsetInCU: 0x213C8, offset: 0x213C8, size: 0x8, addend: 0x0, symName: __ZNKSt3__116reverse_iteratorINS0_IPN5graph6vertexEEEEptB8ue170006Ev, symObjAddr: 0x9870, symBinAddr: 0x10000B3F0, symSize: 0x24 }
  - { offsetInCU: 0x213EE, offset: 0x213EE, size: 0x8, addend: 0x0, symName: __ZNKSt3__116reverse_iteratorINS0_IPN5graph6vertexEEEEdeB8ue170006Ev, symObjAddr: 0x9894, symBinAddr: 0x10000B414, symSize: 0x34 }
  - { offsetInCU: 0x21422, offset: 0x21422, size: 0x8, addend: 0x0, symName: __ZNSt3__116reverse_iteratorIPN5graph6vertexEEmmB8ue170006Ev, symObjAddr: 0x98C8, symBinAddr: 0x10000B448, symSize: 0x20 }
  - { offsetInCU: 0x21448, offset: 0x21448, size: 0x8, addend: 0x0, symName: __ZNSt3__116reverse_iteratorINS0_IPN5graph6vertexEEEEC2B8ue170006ES4_, symObjAddr: 0x98E8, symBinAddr: 0x10000B468, symSize: 0x2C }
  - { offsetInCU: 0x21480, offset: 0x21480, size: 0x8, addend: 0x0, symName: __ZNSt3__116reverse_iteratorIPN5graph6vertexEEC2B8ue170006ES3_, symObjAddr: 0x9914, symBinAddr: 0x10000B494, symSize: 0x28 }
  - { offsetInCU: 0x214B8, offset: 0x214B8, size: 0x8, addend: 0x0, symName: __ZNSt3__114__split_bufferIN5graph6vertexERNS_9allocatorIS2_EEED2Ev, symObjAddr: 0x993C, symBinAddr: 0x10000B4BC, symSize: 0x8C }
  - { offsetInCU: 0x214E4, offset: 0x214E4, size: 0x8, addend: 0x0, symName: __ZNSt3__114__split_bufferIN5graph6vertexERNS_9allocatorIS2_EEE5clearB8ue170006Ev, symObjAddr: 0x99C8, symBinAddr: 0x10000B548, symSize: 0x28 }
  - { offsetInCU: 0x2150A, offset: 0x2150A, size: 0x8, addend: 0x0, symName: __ZNSt3__116allocator_traitsINS_9allocatorIN5graph6vertexEEEE10deallocateB8ue170006ERS4_PS3_m, symObjAddr: 0x99F0, symBinAddr: 0x10000B570, symSize: 0x34 }
  - { offsetInCU: 0x2154C, offset: 0x2154C, size: 0x8, addend: 0x0, symName: __ZNKSt3__114__split_bufferIN5graph6vertexERNS_9allocatorIS2_EEE8capacityB8ue170006Ev, symObjAddr: 0x9A24, symBinAddr: 0x10000B5A4, symSize: 0x40 }
  - { offsetInCU: 0x21572, offset: 0x21572, size: 0x8, addend: 0x0, symName: __ZNSt3__114__split_bufferIN5graph6vertexERNS_9allocatorIS2_EEE17__destruct_at_endB8ue170006EPS2_, symObjAddr: 0x9A64, symBinAddr: 0x10000B5E4, symSize: 0x2C }
  - { offsetInCU: 0x215A6, offset: 0x215A6, size: 0x8, addend: 0x0, symName: __ZNSt3__114__split_bufferIN5graph6vertexERNS_9allocatorIS2_EEE17__destruct_at_endB8ue170006EPS2_NS_17integral_constantIbLb0EEE, symObjAddr: 0x9A90, symBinAddr: 0x10000B610, symSize: 0x80 }
  - { offsetInCU: 0x215E7, offset: 0x215E7, size: 0x8, addend: 0x0, symName: __ZNSt3__19allocatorIN5graph6vertexEE10deallocateB8ue170006EPS2_m, symObjAddr: 0x9B10, symBinAddr: 0x10000B690, symSize: 0x44 }
  - { offsetInCU: 0x21629, offset: 0x21629, size: 0x8, addend: 0x0, symName: __ZNKSt3__114__split_bufferIN5graph6vertexERNS_9allocatorIS2_EEE9__end_capB8ue170006Ev, symObjAddr: 0x9B54, symBinAddr: 0x10000B6D4, symSize: 0x28 }
  - { offsetInCU: 0x2164F, offset: 0x2164F, size: 0x8, addend: 0x0, symName: __ZNKSt3__117__compressed_pairIPN5graph6vertexERNS_9allocatorIS2_EEE5firstB8ue170006Ev, symObjAddr: 0x9B7C, symBinAddr: 0x10000B6FC, symSize: 0x24 }
  - { offsetInCU: 0x21675, offset: 0x21675, size: 0x8, addend: 0x0, symName: __ZN5graph6vertexC2EiNSt3__112basic_stringIcNS1_11char_traitsIcEENS1_9allocatorIcEEEE, symObjAddr: 0x9BA0, symBinAddr: 0x10000B720, symSize: 0x98 }
  - { offsetInCU: 0x216BC, offset: 0x216BC, size: 0x8, addend: 0x0, symName: __ZNSt3__16vectorIN5graph4edgeENS_9allocatorIS2_EEEC1B8ue170006Ev, symObjAddr: 0x9C38, symBinAddr: 0x10000B7B8, symSize: 0x2C }
  - { offsetInCU: 0x216E6, offset: 0x216E6, size: 0x8, addend: 0x0, symName: __ZNSt3__16vectorIN5graph4edgeENS_9allocatorIS2_EEED1B8ue170006Ev, symObjAddr: 0x9C64, symBinAddr: 0x10000B7E4, symSize: 0x2C }
  - { offsetInCU: 0x21710, offset: 0x21710, size: 0x8, addend: 0x0, symName: __ZNSt3__16vectorIN5graph4edgeENS_9allocatorIS2_EEEC2B8ue170006Ev, symObjAddr: 0x9C90, symBinAddr: 0x10000B810, symSize: 0x4C }
  - { offsetInCU: 0x2173A, offset: 0x2173A, size: 0x8, addend: 0x0, symName: __ZNSt3__117__compressed_pairIPN5graph4edgeENS_9allocatorIS2_EEEC1B8ue170006IDnNS_18__default_init_tagEEEOT_OT0_, symObjAddr: 0x9CDC, symBinAddr: 0x10000B85C, symSize: 0x3C }
  - { offsetInCU: 0x21792, offset: 0x21792, size: 0x8, addend: 0x0, symName: __ZNSt3__117__compressed_pairIPN5graph4edgeENS_9allocatorIS2_EEEC2B8ue170006IDnNS_18__default_init_tagEEEOT_OT0_, symObjAddr: 0x9D18, symBinAddr: 0x10000B898, symSize: 0x40 }
  - { offsetInCU: 0x217EA, offset: 0x217EA, size: 0x8, addend: 0x0, symName: __ZNSt3__122__compressed_pair_elemINS_9allocatorIN5graph4edgeEEELi1ELb1EEC2B8ue170006ENS_18__default_init_tagE, symObjAddr: 0x9D58, symBinAddr: 0x10000B8D8, symSize: 0x2C }
  - { offsetInCU: 0x2181F, offset: 0x2181F, size: 0x8, addend: 0x0, symName: __ZNSt3__19allocatorIN5graph4edgeEEC2B8ue170006Ev, symObjAddr: 0x9D84, symBinAddr: 0x10000B904, symSize: 0x2C }
  - { offsetInCU: 0x21849, offset: 0x21849, size: 0x8, addend: 0x0, symName: __ZNSt3__116__non_trivial_ifILb1ENS_9allocatorIN5graph4edgeEEEEC2B8ue170006Ev, symObjAddr: 0x9DB0, symBinAddr: 0x10000B930, symSize: 0x14 }
  - { offsetInCU: 0x21873, offset: 0x21873, size: 0x8, addend: 0x0, symName: __ZNSt3__16vectorIN5graph4edgeENS_9allocatorIS2_EEED2B8ue170006Ev, symObjAddr: 0x9DC4, symBinAddr: 0x10000B944, symSize: 0x44 }
  - { offsetInCU: 0x2189D, offset: 0x2189D, size: 0x8, addend: 0x0, symName: __ZNSt3__16vectorIN5graph4edgeENS_9allocatorIS2_EEE16__destroy_vectorC1B8ue170006ERS5_, symObjAddr: 0x9E08, symBinAddr: 0x10000B988, symSize: 0x34 }
  - { offsetInCU: 0x218D6, offset: 0x218D6, size: 0x8, addend: 0x0, symName: __ZNSt3__16vectorIN5graph4edgeENS_9allocatorIS2_EEE16__destroy_vectorclB8ue170006Ev, symObjAddr: 0x9E3C, symBinAddr: 0x10000B9BC, symSize: 0x90 }
  - { offsetInCU: 0x218FC, offset: 0x218FC, size: 0x8, addend: 0x0, symName: __ZNSt3__16vectorIN5graph4edgeENS_9allocatorIS2_EEE16__destroy_vectorC2B8ue170006ERS5_, symObjAddr: 0x9ECC, symBinAddr: 0x10000BA4C, symSize: 0x20 }
  - { offsetInCU: 0x21935, offset: 0x21935, size: 0x8, addend: 0x0, symName: __ZNSt3__16vectorIN5graph4edgeENS_9allocatorIS2_EEE7__clearB8ue170006Ev, symObjAddr: 0x9EEC, symBinAddr: 0x10000BA6C, symSize: 0x28 }
  - { offsetInCU: 0x2195B, offset: 0x2195B, size: 0x8, addend: 0x0, symName: __ZNKSt3__16vectorIN5graph4edgeENS_9allocatorIS2_EEE17__annotate_deleteB8ue170006Ev, symObjAddr: 0x9F14, symBinAddr: 0x10000BA94, symSize: 0xB8 }
  - { offsetInCU: 0x21981, offset: 0x21981, size: 0x8, addend: 0x0, symName: __ZNSt3__116allocator_traitsINS_9allocatorIN5graph4edgeEEEE10deallocateB8ue170006ERS4_PS3_m, symObjAddr: 0x9FCC, symBinAddr: 0x10000BB4C, symSize: 0x34 }
  - { offsetInCU: 0x219C3, offset: 0x219C3, size: 0x8, addend: 0x0, symName: __ZNKSt3__16vectorIN5graph4edgeENS_9allocatorIS2_EEE8capacityB8ue170006Ev, symObjAddr: 0xA000, symBinAddr: 0x10000BB80, symSize: 0x40 }
  - { offsetInCU: 0x219E9, offset: 0x219E9, size: 0x8, addend: 0x0, symName: __ZNSt3__16vectorIN5graph4edgeENS_9allocatorIS2_EEE22__base_destruct_at_endB8ue170006EPS2_, symObjAddr: 0xA040, symBinAddr: 0x10000BBC0, symSize: 0x8C }
  - { offsetInCU: 0x21A2D, offset: 0x21A2D, size: 0x8, addend: 0x0, symName: __ZNSt3__116allocator_traitsINS_9allocatorIN5graph4edgeEEEE7destroyB8ue170006IS3_vEEvRS4_PT_, symObjAddr: 0xA0CC, symBinAddr: 0x10000BC4C, symSize: 0x2C }
  - { offsetInCU: 0x21A6A, offset: 0x21A6A, size: 0x8, addend: 0x0, symName: __ZNSt3__19allocatorIN5graph4edgeEE7destroyB8ue170006EPS2_, symObjAddr: 0xA10C, symBinAddr: 0x10000BC8C, symSize: 0x14 }
  - { offsetInCU: 0x21A9E, offset: 0x21A9E, size: 0x8, addend: 0x0, symName: __ZNKSt3__16vectorIN5graph4edgeENS_9allocatorIS2_EEE31__annotate_contiguous_containerB8ue170006EPKvS7_S7_S7_, symObjAddr: 0xA120, symBinAddr: 0x10000BCA0, symSize: 0x20 }
  - { offsetInCU: 0x21AF0, offset: 0x21AF0, size: 0x8, addend: 0x0, symName: __ZNKSt3__16vectorIN5graph4edgeENS_9allocatorIS2_EEE4dataB8ue170006Ev, symObjAddr: 0xA140, symBinAddr: 0x10000BCC0, symSize: 0x28 }
  - { offsetInCU: 0x21B16, offset: 0x21B16, size: 0x8, addend: 0x0, symName: __ZNKSt3__16vectorIN5graph4edgeENS_9allocatorIS2_EEE4sizeB8ue170006Ev, symObjAddr: 0xA168, symBinAddr: 0x10000BCE8, symSize: 0x28 }
  - { offsetInCU: 0x21B3C, offset: 0x21B3C, size: 0x8, addend: 0x0, symName: __ZNSt3__19allocatorIN5graph4edgeEE10deallocateB8ue170006EPS2_m, symObjAddr: 0xA190, symBinAddr: 0x10000BD10, symSize: 0x40 }
  - { offsetInCU: 0x21B7E, offset: 0x21B7E, size: 0x8, addend: 0x0, symName: __ZNKSt3__16vectorIN5graph4edgeENS_9allocatorIS2_EEE9__end_capB8ue170006Ev, symObjAddr: 0xA1D0, symBinAddr: 0x10000BD50, symSize: 0x28 }
  - { offsetInCU: 0x21BA4, offset: 0x21BA4, size: 0x8, addend: 0x0, symName: __ZNKSt3__117__compressed_pairIPN5graph4edgeENS_9allocatorIS2_EEE5firstB8ue170006Ev, symObjAddr: 0xA1F8, symBinAddr: 0x10000BD78, symSize: 0x24 }
  - { offsetInCU: 0x21BCA, offset: 0x21BCA, size: 0x8, addend: 0x0, symName: __ZNKSt3__122__compressed_pair_elemIPN5graph4edgeELi0ELb0EE5__getB8ue170006Ev, symObjAddr: 0xA21C, symBinAddr: 0x10000BD9C, symSize: 0x14 }
  - { offsetInCU: 0x21BF0, offset: 0x21BF0, size: 0x8, addend: 0x0, symName: __ZN5graph6vertexD2Ev, symObjAddr: 0xA230, symBinAddr: 0x10000BDB0, symSize: 0x48 }
  - { offsetInCU: 0x21C30, offset: 0x21C30, size: 0x8, addend: 0x0, symName: __ZNSt3__112__hash_tableINS_17__hash_value_typeINS_12basic_stringIcNS_11char_traitsIcEENS_9allocatorIcEEEEiEENS_22__unordered_map_hasherIS7_S8_NS_4hashIS7_EENS_8equal_toIS7_EELb1EEENS_21__unordered_map_equalIS7_S8_SD_SB_Lb1EEENS5_IS8_EEE25__emplace_unique_key_argsIS7_JRKNS_21piecewise_construct_tENS_5tupleIJRKS7_EEENSN_IJEEEEEENS_4pairINS_15__hash_iteratorIPNS_11__hash_nodeIS8_PvEEEEbEERKT_DpOT0_, symObjAddr: 0xA278, symBinAddr: 0x10000BDF8, symSize: 0x4B0 }
  - { offsetInCU: 0x21D3A, offset: 0x21D3A, size: 0x8, addend: 0x0, symName: __ZNKSt3__115__hash_iteratorIPNS_11__hash_nodeINS_17__hash_value_typeINS_12basic_stringIcNS_11char_traitsIcEENS_9allocatorIcEEEEiEEPvEEEptB8ue170006Ev, symObjAddr: 0xA758, symBinAddr: 0x10000C2D8, symSize: 0x30 }
  - { offsetInCU: 0x21D60, offset: 0x21D60, size: 0x8, addend: 0x0, symName: __ZNSt3__117__hash_value_typeINS_12basic_stringIcNS_11char_traitsIcEENS_9allocatorIcEEEEiE11__get_valueB8ue170006Ev, symObjAddr: 0xA788, symBinAddr: 0x10000C308, symSize: 0x14 }
  - { offsetInCU: 0x21D86, offset: 0x21D86, size: 0x8, addend: 0x0, symName: __ZNSt3__112__hash_tableINS_17__hash_value_typeINS_12basic_stringIcNS_11char_traitsIcEENS_9allocatorIcEEEEiEENS_22__unordered_map_hasherIS7_S8_NS_4hashIS7_EENS_8equal_toIS7_EELb1EEENS_21__unordered_map_equalIS7_S8_SD_SB_Lb1EEENS5_IS8_EEE13hash_functionB8ue170006Ev, symObjAddr: 0xA79C, symBinAddr: 0x10000C31C, symSize: 0x28 }
  - { offsetInCU: 0x21DAC, offset: 0x21DAC, size: 0x8, addend: 0x0, symName: __ZNSt3__112__hash_tableINS_17__hash_value_typeINS_12basic_stringIcNS_11char_traitsIcEENS_9allocatorIcEEEEiEENS_22__unordered_map_hasherIS7_S8_NS_4hashIS7_EENS_8equal_toIS7_EELb1EEENS_21__unordered_map_equalIS7_S8_SD_SB_Lb1EEENS5_IS8_EEE6key_eqB8ue170006Ev, symObjAddr: 0xA7C4, symBinAddr: 0x10000C344, symSize: 0x28 }
  - { offsetInCU: 0x21DD2, offset: 0x21DD2, size: 0x8, addend: 0x0, symName: __ZNSt3__112__hash_tableINS_17__hash_value_typeINS_12basic_stringIcNS_11char_traitsIcEENS_9allocatorIcEEEEiEENS_22__unordered_map_hasherIS7_S8_NS_4hashIS7_EENS_8equal_toIS7_EELb1EEENS_21__unordered_map_equalIS7_S8_SD_SB_Lb1EEENS5_IS8_EEE21__construct_node_hashIRKNS_21piecewise_construct_tEJNS_5tupleIJRKS7_EEENSN_IJEEEEEENS_10unique_ptrINS_11__hash_nodeIS8_PvEENS_22__hash_node_destructorINS5_ISV_EEEEEEmOT_DpOT0_, symObjAddr: 0xA7EC, symBinAddr: 0x10000C36C, symSize: 0x150 }
  - { offsetInCU: 0x21E6E, offset: 0x21E6E, size: 0x8, addend: 0x0, symName: __ZNSt3__112__hash_tableINS_17__hash_value_typeINS_12basic_stringIcNS_11char_traitsIcEENS_9allocatorIcEEEEiEENS_22__unordered_map_hasherIS7_S8_NS_4hashIS7_EENS_8equal_toIS7_EELb1EEENS_21__unordered_map_equalIS7_S8_SD_SB_Lb1EEENS5_IS8_EEE4sizeB8ue170006Ev, symObjAddr: 0xA93C, symBinAddr: 0x10000C4BC, symSize: 0x28 }
  - { offsetInCU: 0x21E94, offset: 0x21E94, size: 0x8, addend: 0x0, symName: __ZNSt3__112__hash_tableINS_17__hash_value_typeINS_12basic_stringIcNS_11char_traitsIcEENS_9allocatorIcEEEEiEENS_22__unordered_map_hasherIS7_S8_NS_4hashIS7_EENS_8equal_toIS7_EELb1EEENS_21__unordered_map_equalIS7_S8_SD_SB_Lb1EEENS5_IS8_EEE15max_load_factorB8ue170006Ev, symObjAddr: 0xA964, symBinAddr: 0x10000C4E4, symSize: 0x28 }
  - { offsetInCU: 0x21EBA, offset: 0x21EBA, size: 0x8, addend: 0x0, symName: __ZNSt3__112__hash_tableINS_17__hash_value_typeINS_12basic_stringIcNS_11char_traitsIcEENS_9allocatorIcEEEEiEENS_22__unordered_map_hasherIS7_S8_NS_4hashIS7_EENS_8equal_toIS7_EELb1EEENS_21__unordered_map_equalIS7_S8_SD_SB_Lb1EEENS5_IS8_EEE15__rehash_uniqueB8ue170006Em, symObjAddr: 0xA98C, symBinAddr: 0x10000C50C, symSize: 0x2C }
  - { offsetInCU: 0x21EEF, offset: 0x21EEF, size: 0x8, addend: 0x0, symName: __ZNSt3__117__compressed_pairINS_16__hash_node_baseIPNS_11__hash_nodeINS_17__hash_value_typeINS_12basic_stringIcNS_11char_traitsIcEENS_9allocatorIcEEEEiEEPvEEEENS7_ISC_EEE5firstB8ue170006Ev, symObjAddr: 0xA9B8, symBinAddr: 0x10000C538, symSize: 0x24 }
  - { offsetInCU: 0x21F15, offset: 0x21F15, size: 0x8, addend: 0x0, symName: __ZNSt3__116__hash_node_baseIPNS_11__hash_nodeINS_17__hash_value_typeINS_12basic_stringIcNS_11char_traitsIcEENS_9allocatorIcEEEEiEEPvEEE5__ptrB8ue170006Ev, symObjAddr: 0xA9DC, symBinAddr: 0x10000C55C, symSize: 0x24 }
  - { offsetInCU: 0x21F3B, offset: 0x21F3B, size: 0x8, addend: 0x0, symName: __ZNKSt3__110unique_ptrINS_11__hash_nodeINS_17__hash_value_typeINS_12basic_stringIcNS_11char_traitsIcEENS_9allocatorIcEEEEiEEPvEENS_22__hash_node_destructorINS6_ISB_EEEEEptB8ue170006Ev, symObjAddr: 0xAA00, symBinAddr: 0x10000C580, symSize: 0x28 }
  - { offsetInCU: 0x21F61, offset: 0x21F61, size: 0x8, addend: 0x0, symName: __ZNKSt3__110unique_ptrINS_11__hash_nodeINS_17__hash_value_typeINS_12basic_stringIcNS_11char_traitsIcEENS_9allocatorIcEEEEiEEPvEENS_22__hash_node_destructorINS6_ISB_EEEEE3getB8ue170006Ev, symObjAddr: 0xAA28, symBinAddr: 0x10000C5A8, symSize: 0x28 }
  - { offsetInCU: 0x21F87, offset: 0x21F87, size: 0x8, addend: 0x0, symName: __ZNSt3__110unique_ptrINS_11__hash_nodeINS_17__hash_value_typeINS_12basic_stringIcNS_11char_traitsIcEENS_9allocatorIcEEEEiEEPvEENS_22__hash_node_destructorINS6_ISB_EEEEE7releaseB8ue170006Ev, symObjAddr: 0xAA50, symBinAddr: 0x10000C5D0, symSize: 0x44 }
  - { offsetInCU: 0x21FBC, offset: 0x21FBC, size: 0x8, addend: 0x0, symName: __ZNSt3__110unique_ptrINS_11__hash_nodeINS_17__hash_value_typeINS_12basic_stringIcNS_11char_traitsIcEENS_9allocatorIcEEEEiEEPvEENS_22__hash_node_destructorINS6_ISB_EEEEED1B8ue170006Ev, symObjAddr: 0xAA94, symBinAddr: 0x10000C614, symSize: 0x2C }
  - { offsetInCU: 0x21FE6, offset: 0x21FE6, size: 0x8, addend: 0x0, symName: __ZNSt3__115__hash_iteratorIPNS_11__hash_nodeINS_17__hash_value_typeINS_12basic_stringIcNS_11char_traitsIcEENS_9allocatorIcEEEEiEEPvEEEC1B8ue170006EPNS_16__hash_node_baseISC_EE, symObjAddr: 0xAAC0, symBinAddr: 0x10000C640, symSize: 0x34 }
  - { offsetInCU: 0x22024, offset: 0x22024, size: 0x8, addend: 0x0, symName: __ZNSt3__14pairINS_15__hash_iteratorIPNS_11__hash_nodeINS_17__hash_value_typeINS_12basic_stringIcNS_11char_traitsIcEENS_9allocatorIcEEEEiEEPvEEEEbEC1B8ue170006ISE_RbLSB_0EEEOT_OT0_, symObjAddr: 0xAAF4, symBinAddr: 0x10000C674, symSize: 0x3C }
  - { offsetInCU: 0x22082, offset: 0x22082, size: 0x8, addend: 0x0, symName: __ZNSt3__117__compressed_pairImNS_22__unordered_map_hasherINS_12basic_stringIcNS_11char_traitsIcEENS_9allocatorIcEEEENS_17__hash_value_typeIS7_iEENS_4hashIS7_EENS_8equal_toIS7_EELb1EEEE6secondB8ue170006Ev, symObjAddr: 0xAB30, symBinAddr: 0x10000C6B0, symSize: 0x24 }
  - { offsetInCU: 0x220A8, offset: 0x220A8, size: 0x8, addend: 0x0, symName: __ZNSt3__122__compressed_pair_elemINS_22__unordered_map_hasherINS_12basic_stringIcNS_11char_traitsIcEENS_9allocatorIcEEEENS_17__hash_value_typeIS7_iEENS_4hashIS7_EENS_8equal_toIS7_EELb1EEELi1ELb1EE5__getB8ue170006Ev, symObjAddr: 0xAB54, symBinAddr: 0x10000C6D4, symSize: 0x14 }
  - { offsetInCU: 0x220CE, offset: 0x220CE, size: 0x8, addend: 0x0, symName: __ZNSt3__117__compressed_pairIfNS_21__unordered_map_equalINS_12basic_stringIcNS_11char_traitsIcEENS_9allocatorIcEEEENS_17__hash_value_typeIS7_iEENS_8equal_toIS7_EENS_4hashIS7_EELb1EEEE6secondB8ue170006Ev, symObjAddr: 0xAB68, symBinAddr: 0x10000C6E8, symSize: 0x24 }
  - { offsetInCU: 0x220F4, offset: 0x220F4, size: 0x8, addend: 0x0, symName: __ZNSt3__122__compressed_pair_elemINS_21__unordered_map_equalINS_12basic_stringIcNS_11char_traitsIcEENS_9allocatorIcEEEENS_17__hash_value_typeIS7_iEENS_8equal_toIS7_EENS_4hashIS7_EELb1EEELi1ELb1EE5__getB8ue170006Ev, symObjAddr: 0xAB8C, symBinAddr: 0x10000C70C, symSize: 0x14 }
  - { offsetInCU: 0x2211A, offset: 0x2211A, size: 0x8, addend: 0x0, symName: __ZNSt3__112__hash_tableINS_17__hash_value_typeINS_12basic_stringIcNS_11char_traitsIcEENS_9allocatorIcEEEEiEENS_22__unordered_map_hasherIS7_S8_NS_4hashIS7_EENS_8equal_toIS7_EELb1EEENS_21__unordered_map_equalIS7_S8_SD_SB_Lb1EEENS5_IS8_EEE12__node_allocB8ue170006Ev, symObjAddr: 0xABA0, symBinAddr: 0x10000C720, symSize: 0x28 }
  - { offsetInCU: 0x22140, offset: 0x22140, size: 0x8, addend: 0x0, symName: __ZNSt3__116allocator_traitsINS_9allocatorINS_11__hash_nodeINS_17__hash_value_typeINS_12basic_stringIcNS_11char_traitsIcEENS1_IcEEEEiEEPvEEEEE8allocateB8ue170006ERSC_m, symObjAddr: 0xABC8, symBinAddr: 0x10000C748, symSize: 0x2C }
  - { offsetInCU: 0x22173, offset: 0x22173, size: 0x8, addend: 0x0, symName: __ZNSt3__122__hash_node_destructorINS_9allocatorINS_11__hash_nodeINS_17__hash_value_typeINS_12basic_stringIcNS_11char_traitsIcEENS1_IcEEEEiEEPvEEEEEC1B8ue170006ERSC_b, symObjAddr: 0xABF4, symBinAddr: 0x10000C774, symSize: 0x48 }
  - { offsetInCU: 0x221C0, offset: 0x221C0, size: 0x8, addend: 0x0, symName: __ZNSt3__110unique_ptrINS_11__hash_nodeINS_17__hash_value_typeINS_12basic_stringIcNS_11char_traitsIcEENS_9allocatorIcEEEEiEEPvEENS_22__hash_node_destructorINS6_ISB_EEEEEC1B8ue170006ILb1EvEEPSB_NS_16__dependent_typeINS_27__unique_ptr_deleter_sfinaeISE_EEXT_EE20__good_rval_ref_typeE, symObjAddr: 0xAC3C, symBinAddr: 0x10000C7BC, symSize: 0x3C }
  - { offsetInCU: 0x22211, offset: 0x22211, size: 0x8, addend: 0x0, symName: __ZNSt3__116allocator_traitsINS_9allocatorINS_11__hash_nodeINS_17__hash_value_typeINS_12basic_stringIcNS_11char_traitsIcEENS1_IcEEEEiEEPvEEEEE9constructB8ue170006INS_4pairIKS8_iEEJRKNS_21piecewise_construct_tENS_5tupleIJRSG_EEENSL_IJEEEEvEEvRSC_PT_DpOT0_, symObjAddr: 0xAC78, symBinAddr: 0x10000C7F8, symSize: 0x44 }
  - { offsetInCU: 0x22290, offset: 0x22290, size: 0x8, addend: 0x0, symName: __ZNSt3__122__hash_key_value_typesINS_17__hash_value_typeINS_12basic_stringIcNS_11char_traitsIcEENS_9allocatorIcEEEEiEEE9__get_ptrB8ue170006ERS8_, symObjAddr: 0xACBC, symBinAddr: 0x10000C83C, symSize: 0x24 }
  - { offsetInCU: 0x222B3, offset: 0x222B3, size: 0x8, addend: 0x0, symName: __ZNSt3__110unique_ptrINS_11__hash_nodeINS_17__hash_value_typeINS_12basic_stringIcNS_11char_traitsIcEENS_9allocatorIcEEEEiEEPvEENS_22__hash_node_destructorINS6_ISB_EEEEE11get_deleterB8ue170006Ev, symObjAddr: 0xACE0, symBinAddr: 0x10000C860, symSize: 0x24 }
  - { offsetInCU: 0x222D9, offset: 0x222D9, size: 0x8, addend: 0x0, symName: __ZNSt3__117__compressed_pairINS_16__hash_node_baseIPNS_11__hash_nodeINS_17__hash_value_typeINS_12basic_stringIcNS_11char_traitsIcEENS_9allocatorIcEEEEiEEPvEEEENS7_ISC_EEE6secondB8ue170006Ev, symObjAddr: 0xAD04, symBinAddr: 0x10000C884, symSize: 0x24 }
  - { offsetInCU: 0x222FF, offset: 0x222FF, size: 0x8, addend: 0x0, symName: __ZNSt3__122__compressed_pair_elemINS_9allocatorINS_11__hash_nodeINS_17__hash_value_typeINS_12basic_stringIcNS_11char_traitsIcEENS1_IcEEEEiEEPvEEEELi1ELb1EE5__getB8ue170006Ev, symObjAddr: 0xAD28, symBinAddr: 0x10000C8A8, symSize: 0x14 }
  - { offsetInCU: 0x22325, offset: 0x22325, size: 0x8, addend: 0x0, symName: __ZNSt3__19allocatorINS_11__hash_nodeINS_17__hash_value_typeINS_12basic_stringIcNS_11char_traitsIcEENS0_IcEEEEiEEPvEEE8allocateB8ue170006Em, symObjAddr: 0xAD3C, symBinAddr: 0x10000C8BC, symSize: 0x5C }
  - { offsetInCU: 0x22363, offset: 0x22363, size: 0x8, addend: 0x0, symName: __ZNSt3__116allocator_traitsINS_9allocatorINS_11__hash_nodeINS_17__hash_value_typeINS_12basic_stringIcNS_11char_traitsIcEENS1_IcEEEEiEEPvEEEEE8max_sizeB8ue170006ISC_vEEmRKSC_, symObjAddr: 0xAD98, symBinAddr: 0x10000C918, symSize: 0x24 }
  - { offsetInCU: 0x22391, offset: 0x22391, size: 0x8, addend: 0x0, symName: __ZNKSt3__19allocatorINS_11__hash_nodeINS_17__hash_value_typeINS_12basic_stringIcNS_11char_traitsIcEENS0_IcEEEEiEEPvEEE8max_sizeB8ue170006Ev, symObjAddr: 0xADBC, symBinAddr: 0x10000C93C, symSize: 0x18 }
  - { offsetInCU: 0x223B7, offset: 0x223B7, size: 0x8, addend: 0x0, symName: __ZNSt3__122__hash_node_destructorINS_9allocatorINS_11__hash_nodeINS_17__hash_value_typeINS_12basic_stringIcNS_11char_traitsIcEENS1_IcEEEEiEEPvEEEEEC2B8ue170006ERSC_b, symObjAddr: 0xADD4, symBinAddr: 0x10000C954, symSize: 0x38 }
  - { offsetInCU: 0x223FF, offset: 0x223FF, size: 0x8, addend: 0x0, symName: __ZNSt3__110unique_ptrINS_11__hash_nodeINS_17__hash_value_typeINS_12basic_stringIcNS_11char_traitsIcEENS_9allocatorIcEEEEiEEPvEENS_22__hash_node_destructorINS6_ISB_EEEEEC2B8ue170006ILb1EvEEPSB_NS_16__dependent_typeINS_27__unique_ptr_deleter_sfinaeISE_EEXT_EE20__good_rval_ref_typeE, symObjAddr: 0xAE0C, symBinAddr: 0x10000C98C, symSize: 0x48 }
  - { offsetInCU: 0x22450, offset: 0x22450, size: 0x8, addend: 0x0, symName: __ZNSt3__117__compressed_pairIPNS_11__hash_nodeINS_17__hash_value_typeINS_12basic_stringIcNS_11char_traitsIcEENS_9allocatorIcEEEEiEEPvEENS_22__hash_node_destructorINS6_ISB_EEEEEC1B8ue170006IRSC_SF_EEOT_OT0_, symObjAddr: 0xAE54, symBinAddr: 0x10000C9D4, symSize: 0x3C }
  - { offsetInCU: 0x224A8, offset: 0x224A8, size: 0x8, addend: 0x0, symName: __ZNSt3__117__compressed_pairIPNS_11__hash_nodeINS_17__hash_value_typeINS_12basic_stringIcNS_11char_traitsIcEENS_9allocatorIcEEEEiEEPvEENS_22__hash_node_destructorINS6_ISB_EEEEEC2B8ue170006IRSC_SF_EEOT_OT0_, symObjAddr: 0xAE90, symBinAddr: 0x10000CA10, symSize: 0x48 }
  - { offsetInCU: 0x22500, offset: 0x22500, size: 0x8, addend: 0x0, symName: __ZNSt3__122__compressed_pair_elemIPNS_11__hash_nodeINS_17__hash_value_typeINS_12basic_stringIcNS_11char_traitsIcEENS_9allocatorIcEEEEiEEPvEELi0ELb0EEC2B8ue170006IRSC_vEEOT_, symObjAddr: 0xAED8, symBinAddr: 0x10000CA58, symSize: 0x24 }
  - { offsetInCU: 0x22542, offset: 0x22542, size: 0x8, addend: 0x0, symName: __ZNSt3__122__compressed_pair_elemINS_22__hash_node_destructorINS_9allocatorINS_11__hash_nodeINS_17__hash_value_typeINS_12basic_stringIcNS_11char_traitsIcEENS2_IcEEEEiEEPvEEEEEELi1ELb0EEC2B8ue170006ISE_vEEOT_, symObjAddr: 0xAEFC, symBinAddr: 0x10000CA7C, symSize: 0x24 }
  - { offsetInCU: 0x22584, offset: 0x22584, size: 0x8, addend: 0x0, symName: __ZNSt3__19allocatorINS_11__hash_nodeINS_17__hash_value_typeINS_12basic_stringIcNS_11char_traitsIcEENS0_IcEEEEiEEPvEEE9constructB8ue170006INS_4pairIKS7_iEEJRKNS_21piecewise_construct_tENS_5tupleIJRSE_EEENSJ_IJEEEEEEvPT_DpOT0_, symObjAddr: 0xAF20, symBinAddr: 0x10000CAA0, symSize: 0x44 }
  - { offsetInCU: 0x22600, offset: 0x22600, size: 0x8, addend: 0x0, symName: __ZNSt3__14pairIKNS_12basic_stringIcNS_11char_traitsIcEENS_9allocatorIcEEEEiEC1B8ue170006IJRS7_EJEEENS_21piecewise_construct_tENS_5tupleIJDpT_EEENSC_IJDpT0_EEE, symObjAddr: 0xAF64, symBinAddr: 0x10000CAE4, symSize: 0x3C }
  - { offsetInCU: 0x22667, offset: 0x22667, size: 0x8, addend: 0x0, symName: __ZNSt3__14pairIKNS_12basic_stringIcNS_11char_traitsIcEENS_9allocatorIcEEEEiEC1B8ue170006IJRS7_EJEJLm0EEJEEENS_21piecewise_construct_tERNS_5tupleIJDpT_EEERNSC_IJDpT0_EEENS_15__tuple_indicesIJXspT1_EEEENSL_IJXspT2_EEEE, symObjAddr: 0xAFA0, symBinAddr: 0x10000CB20, symSize: 0x3C }
  - { offsetInCU: 0x226F4, offset: 0x226F4, size: 0x8, addend: 0x0, symName: __ZNSt3__14pairIKNS_12basic_stringIcNS_11char_traitsIcEENS_9allocatorIcEEEEiEC2B8ue170006IJRS7_EJEJLm0EEJEEENS_21piecewise_construct_tERNS_5tupleIJDpT_EEERNSC_IJDpT0_EEENS_15__tuple_indicesIJXspT1_EEEENSL_IJXspT2_EEEE, symObjAddr: 0xAFDC, symBinAddr: 0x10000CB5C, symSize: 0x48 }
  - { offsetInCU: 0x22781, offset: 0x22781, size: 0x8, addend: 0x0, symName: __ZNSt3__112__tuple_leafILm0ERKNS_12basic_stringIcNS_11char_traitsIcEENS_9allocatorIcEEEELb0EE3getB8ue170006Ev, symObjAddr: 0xB048, symBinAddr: 0x10000CBC8, symSize: 0x18 }
  - { offsetInCU: 0x227A7, offset: 0x227A7, size: 0x8, addend: 0x0, symName: __ZNSt3__117__compressed_pairIPNS_11__hash_nodeINS_17__hash_value_typeINS_12basic_stringIcNS_11char_traitsIcEENS_9allocatorIcEEEEiEEPvEENS_22__hash_node_destructorINS6_ISB_EEEEE6secondB8ue170006Ev, symObjAddr: 0xB060, symBinAddr: 0x10000CBE0, symSize: 0x28 }
  - { offsetInCU: 0x227CD, offset: 0x227CD, size: 0x8, addend: 0x0, symName: __ZNSt3__122__compressed_pair_elemINS_22__hash_node_destructorINS_9allocatorINS_11__hash_nodeINS_17__hash_value_typeINS_12basic_stringIcNS_11char_traitsIcEENS2_IcEEEEiEEPvEEEEEELi1ELb0EE5__getB8ue170006Ev, symObjAddr: 0xB088, symBinAddr: 0x10000CC08, symSize: 0x14 }
  - { offsetInCU: 0x227F3, offset: 0x227F3, size: 0x8, addend: 0x0, symName: __ZNSt3__117__compressed_pairImNS_22__unordered_map_hasherINS_12basic_stringIcNS_11char_traitsIcEENS_9allocatorIcEEEENS_17__hash_value_typeIS7_iEENS_4hashIS7_EENS_8equal_toIS7_EELb1EEEE5firstB8ue170006Ev, symObjAddr: 0xB09C, symBinAddr: 0x10000CC1C, symSize: 0x24 }
  - { offsetInCU: 0x22819, offset: 0x22819, size: 0x8, addend: 0x0, symName: __ZNSt3__117__compressed_pairIfNS_21__unordered_map_equalINS_12basic_stringIcNS_11char_traitsIcEENS_9allocatorIcEEEENS_17__hash_value_typeIS7_iEENS_8equal_toIS7_EENS_4hashIS7_EELb1EEEE5firstB8ue170006Ev, symObjAddr: 0xB0C0, symBinAddr: 0x10000CC40, symSize: 0x24 }
  - { offsetInCU: 0x2283F, offset: 0x2283F, size: 0x8, addend: 0x0, symName: __ZNSt3__112__hash_tableINS_17__hash_value_typeINS_12basic_stringIcNS_11char_traitsIcEENS_9allocatorIcEEEEiEENS_22__unordered_map_hasherIS7_S8_NS_4hashIS7_EENS_8equal_toIS7_EELb1EEENS_21__unordered_map_equalIS7_S8_SD_SB_Lb1EEENS5_IS8_EEE8__rehashILb1EEEvm, symObjAddr: 0xB0E4, symBinAddr: 0x10000CC64, symSize: 0x1A8 }
  - { offsetInCU: 0x2288F, offset: 0x2288F, size: 0x8, addend: 0x0, symName: __ZNSt3__112__hash_tableINS_17__hash_value_typeINS_12basic_stringIcNS_11char_traitsIcEENS_9allocatorIcEEEEiEENS_22__unordered_map_hasherIS7_S8_NS_4hashIS7_EENS_8equal_toIS7_EELb1EEENS_21__unordered_map_equalIS7_S8_SD_SB_Lb1EEENS5_IS8_EEE11__do_rehashILb1EEEvm, symObjAddr: 0xB28C, symBinAddr: 0x10000CE0C, symSize: 0x288 }
  - { offsetInCU: 0x22976, offset: 0x22976, size: 0x8, addend: 0x0, symName: __ZNSt3__110unique_ptrIA_PNS_16__hash_node_baseIPNS_11__hash_nodeINS_17__hash_value_typeINS_12basic_stringIcNS_11char_traitsIcEENS_9allocatorIcEEEEiEEPvEEEENS_25__bucket_list_deallocatorINS7_ISF_EEEEE11get_deleterB8ue170006Ev, symObjAddr: 0xB514, symBinAddr: 0x10000D094, symSize: 0x24 }
  - { offsetInCU: 0x2299C, offset: 0x2299C, size: 0x8, addend: 0x0, symName: __ZNSt3__125__bucket_list_deallocatorINS_9allocatorIPNS_16__hash_node_baseIPNS_11__hash_nodeINS_17__hash_value_typeINS_12basic_stringIcNS_11char_traitsIcEENS1_IcEEEEiEEPvEEEEEEE7__allocB8ue170006Ev, symObjAddr: 0xB538, symBinAddr: 0x10000D0B8, symSize: 0x24 }
  - { offsetInCU: 0x229C2, offset: 0x229C2, size: 0x8, addend: 0x0, symName: __ZNSt3__110unique_ptrIA_PNS_16__hash_node_baseIPNS_11__hash_nodeINS_17__hash_value_typeINS_12basic_stringIcNS_11char_traitsIcEENS_9allocatorIcEEEEiEEPvEEEENS_25__bucket_list_deallocatorINS7_ISF_EEEEE5resetB8ue170006IPSF_EENS_9enable_ifIXsr28_CheckArrayPointerConversionIT_EE5valueEvE4typeESO_, symObjAddr: 0xB55C, symBinAddr: 0x10000D0DC, symSize: 0x78 }
  - { offsetInCU: 0x22A0F, offset: 0x22A0F, size: 0x8, addend: 0x0, symName: __ZNSt3__116allocator_traitsINS_9allocatorIPNS_16__hash_node_baseIPNS_11__hash_nodeINS_17__hash_value_typeINS_12basic_stringIcNS_11char_traitsIcEENS1_IcEEEEiEEPvEEEEEEE8allocateB8ue170006ERSG_m, symObjAddr: 0xB5D4, symBinAddr: 0x10000D154, symSize: 0x2C }
  - { offsetInCU: 0x22A42, offset: 0x22A42, size: 0x8, addend: 0x0, symName: __ZNSt3__125__bucket_list_deallocatorINS_9allocatorIPNS_16__hash_node_baseIPNS_11__hash_nodeINS_17__hash_value_typeINS_12basic_stringIcNS_11char_traitsIcEENS1_IcEEEEiEEPvEEEEEEE4sizeB8ue170006Ev, symObjAddr: 0xB600, symBinAddr: 0x10000D180, symSize: 0x24 }
  - { offsetInCU: 0x22A68, offset: 0x22A68, size: 0x8, addend: 0x0, symName: __ZNSt3__117__compressed_pairIPPNS_16__hash_node_baseIPNS_11__hash_nodeINS_17__hash_value_typeINS_12basic_stringIcNS_11char_traitsIcEENS_9allocatorIcEEEEiEEPvEEEENS_25__bucket_list_deallocatorINS7_ISF_EEEEE6secondB8ue170006Ev, symObjAddr: 0xB624, symBinAddr: 0x10000D1A4, symSize: 0x28 }
  - { offsetInCU: 0x22A8E, offset: 0x22A8E, size: 0x8, addend: 0x0, symName: __ZNSt3__122__compressed_pair_elemINS_25__bucket_list_deallocatorINS_9allocatorIPNS_16__hash_node_baseIPNS_11__hash_nodeINS_17__hash_value_typeINS_12basic_stringIcNS_11char_traitsIcEENS2_IcEEEEiEEPvEEEEEEEELi1ELb0EE5__getB8ue170006Ev, symObjAddr: 0xB64C, symBinAddr: 0x10000D1CC, symSize: 0x14 }
  - { offsetInCU: 0x22AB4, offset: 0x22AB4, size: 0x8, addend: 0x0, symName: __ZNSt3__117__compressed_pairImNS_9allocatorIPNS_16__hash_node_baseIPNS_11__hash_nodeINS_17__hash_value_typeINS_12basic_stringIcNS_11char_traitsIcEENS1_IcEEEEiEEPvEEEEEEE6secondB8ue170006Ev, symObjAddr: 0xB660, symBinAddr: 0x10000D1E0, symSize: 0x24 }
  - { offsetInCU: 0x22ADA, offset: 0x22ADA, size: 0x8, addend: 0x0, symName: __ZNSt3__122__compressed_pair_elemINS_9allocatorIPNS_16__hash_node_baseIPNS_11__hash_nodeINS_17__hash_value_typeINS_12basic_stringIcNS_11char_traitsIcEENS1_IcEEEEiEEPvEEEEEELi1ELb1EE5__getB8ue170006Ev, symObjAddr: 0xB684, symBinAddr: 0x10000D204, symSize: 0x14 }
  - { offsetInCU: 0x22B00, offset: 0x22B00, size: 0x8, addend: 0x0, symName: __ZNSt3__117__compressed_pairIPPNS_16__hash_node_baseIPNS_11__hash_nodeINS_17__hash_value_typeINS_12basic_stringIcNS_11char_traitsIcEENS_9allocatorIcEEEEiEEPvEEEENS_25__bucket_list_deallocatorINS7_ISF_EEEEE5firstB8ue170006Ev, symObjAddr: 0xB698, symBinAddr: 0x10000D218, symSize: 0x24 }
  - { offsetInCU: 0x22B26, offset: 0x22B26, size: 0x8, addend: 0x0, symName: __ZNSt3__125__bucket_list_deallocatorINS_9allocatorIPNS_16__hash_node_baseIPNS_11__hash_nodeINS_17__hash_value_typeINS_12basic_stringIcNS_11char_traitsIcEENS1_IcEEEEiEEPvEEEEEEEclB8ue170006EPSF_, symObjAddr: 0xB6BC, symBinAddr: 0x10000D23C, symSize: 0x58 }
  - { offsetInCU: 0x22B5B, offset: 0x22B5B, size: 0x8, addend: 0x0, symName: __ZNSt3__122__compressed_pair_elemIPPNS_16__hash_node_baseIPNS_11__hash_nodeINS_17__hash_value_typeINS_12basic_stringIcNS_11char_traitsIcEENS_9allocatorIcEEEEiEEPvEEEELi0ELb0EE5__getB8ue170006Ev, symObjAddr: 0xB714, symBinAddr: 0x10000D294, symSize: 0x14 }
  - { offsetInCU: 0x22B81, offset: 0x22B81, size: 0x8, addend: 0x0, symName: __ZNSt3__116allocator_traitsINS_9allocatorIPNS_16__hash_node_baseIPNS_11__hash_nodeINS_17__hash_value_typeINS_12basic_stringIcNS_11char_traitsIcEENS1_IcEEEEiEEPvEEEEEEE10deallocateB8ue170006ERSG_PSF_m, symObjAddr: 0xB728, symBinAddr: 0x10000D2A8, symSize: 0x34 }
  - { offsetInCU: 0x22BC3, offset: 0x22BC3, size: 0x8, addend: 0x0, symName: __ZNSt3__19allocatorIPNS_16__hash_node_baseIPNS_11__hash_nodeINS_17__hash_value_typeINS_12basic_stringIcNS_11char_traitsIcEENS0_IcEEEEiEEPvEEEEE10deallocateB8ue170006EPSE_m, symObjAddr: 0xB75C, symBinAddr: 0x10000D2DC, symSize: 0x40 }
  - { offsetInCU: 0x22C05, offset: 0x22C05, size: 0x8, addend: 0x0, symName: __ZNSt3__19allocatorIPNS_16__hash_node_baseIPNS_11__hash_nodeINS_17__hash_value_typeINS_12basic_stringIcNS_11char_traitsIcEENS0_IcEEEEiEEPvEEEEE8allocateB8ue170006Em, symObjAddr: 0xB79C, symBinAddr: 0x10000D31C, symSize: 0x58 }
  - { offsetInCU: 0x22C43, offset: 0x22C43, size: 0x8, addend: 0x0, symName: __ZNSt3__116allocator_traitsINS_9allocatorIPNS_16__hash_node_baseIPNS_11__hash_nodeINS_17__hash_value_typeINS_12basic_stringIcNS_11char_traitsIcEENS1_IcEEEEiEEPvEEEEEEE8max_sizeB8ue170006ISG_vEEmRKSG_, symObjAddr: 0xB7F4, symBinAddr: 0x10000D374, symSize: 0x24 }
  - { offsetInCU: 0x22C71, offset: 0x22C71, size: 0x8, addend: 0x0, symName: __ZNKSt3__19allocatorIPNS_16__hash_node_baseIPNS_11__hash_nodeINS_17__hash_value_typeINS_12basic_stringIcNS_11char_traitsIcEENS0_IcEEEEiEEPvEEEEE8max_sizeB8ue170006Ev, symObjAddr: 0xB818, symBinAddr: 0x10000D398, symSize: 0x14 }
  - { offsetInCU: 0x22C97, offset: 0x22C97, size: 0x8, addend: 0x0, symName: __ZNSt3__117__compressed_pairImNS_9allocatorIPNS_16__hash_node_baseIPNS_11__hash_nodeINS_17__hash_value_typeINS_12basic_stringIcNS_11char_traitsIcEENS1_IcEEEEiEEPvEEEEEEE5firstB8ue170006Ev, symObjAddr: 0xB82C, symBinAddr: 0x10000D3AC, symSize: 0x24 }
  - { offsetInCU: 0x22CBD, offset: 0x22CBD, size: 0x8, addend: 0x0, symName: __ZNSt3__122__compressed_pair_elemINS_16__hash_node_baseIPNS_11__hash_nodeINS_17__hash_value_typeINS_12basic_stringIcNS_11char_traitsIcEENS_9allocatorIcEEEEiEEPvEEEELi0ELb0EE5__getB8ue170006Ev, symObjAddr: 0xB850, symBinAddr: 0x10000D3D0, symSize: 0x14 }
  - { offsetInCU: 0x22CE3, offset: 0x22CE3, size: 0x8, addend: 0x0, symName: __ZNKSt3__117__compressed_pairIPNS_11__hash_nodeINS_17__hash_value_typeINS_12basic_stringIcNS_11char_traitsIcEENS_9allocatorIcEEEEiEEPvEENS_22__hash_node_destructorINS6_ISB_EEEEE5firstB8ue170006Ev, symObjAddr: 0xB864, symBinAddr: 0x10000D3E4, symSize: 0x24 }
  - { offsetInCU: 0x22D09, offset: 0x22D09, size: 0x8, addend: 0x0, symName: __ZNKSt3__122__compressed_pair_elemIPNS_11__hash_nodeINS_17__hash_value_typeINS_12basic_stringIcNS_11char_traitsIcEENS_9allocatorIcEEEEiEEPvEELi0ELb0EE5__getB8ue170006Ev, symObjAddr: 0xB888, symBinAddr: 0x10000D408, symSize: 0x14 }
  - { offsetInCU: 0x22D2F, offset: 0x22D2F, size: 0x8, addend: 0x0, symName: __ZNSt3__117__compressed_pairIPNS_11__hash_nodeINS_17__hash_value_typeINS_12basic_stringIcNS_11char_traitsIcEENS_9allocatorIcEEEEiEEPvEENS_22__hash_node_destructorINS6_ISB_EEEEE5firstB8ue170006Ev, symObjAddr: 0xB89C, symBinAddr: 0x10000D41C, symSize: 0x24 }
  - { offsetInCU: 0x22D55, offset: 0x22D55, size: 0x8, addend: 0x0, symName: __ZNSt3__122__compressed_pair_elemIPNS_11__hash_nodeINS_17__hash_value_typeINS_12basic_stringIcNS_11char_traitsIcEENS_9allocatorIcEEEEiEEPvEELi0ELb0EE5__getB8ue170006Ev, symObjAddr: 0xB8C0, symBinAddr: 0x10000D440, symSize: 0x14 }
  - { offsetInCU: 0x22D7B, offset: 0x22D7B, size: 0x8, addend: 0x0, symName: __ZNSt3__110unique_ptrINS_11__hash_nodeINS_17__hash_value_typeINS_12basic_stringIcNS_11char_traitsIcEENS_9allocatorIcEEEEiEEPvEENS_22__hash_node_destructorINS6_ISB_EEEEED2B8ue170006Ev, symObjAddr: 0xB8D4, symBinAddr: 0x10000D454, symSize: 0x30 }
  - { offsetInCU: 0x22DA5, offset: 0x22DA5, size: 0x8, addend: 0x0, symName: __ZNSt3__110unique_ptrINS_11__hash_nodeINS_17__hash_value_typeINS_12basic_stringIcNS_11char_traitsIcEENS_9allocatorIcEEEEiEEPvEENS_22__hash_node_destructorINS6_ISB_EEEEE5resetB8ue170006EPSB_, symObjAddr: 0xB904, symBinAddr: 0x10000D484, symSize: 0x78 }
  - { offsetInCU: 0x22DE9, offset: 0x22DE9, size: 0x8, addend: 0x0, symName: __ZNSt3__122__hash_node_destructorINS_9allocatorINS_11__hash_nodeINS_17__hash_value_typeINS_12basic_stringIcNS_11char_traitsIcEENS1_IcEEEEiEEPvEEEEEclB8ue170006EPSB_, symObjAddr: 0xB97C, symBinAddr: 0x10000D4FC, symSize: 0x98 }
  - { offsetInCU: 0x22E1E, offset: 0x22E1E, size: 0x8, addend: 0x0, symName: __ZNSt3__116allocator_traitsINS_9allocatorINS_11__hash_nodeINS_17__hash_value_typeINS_12basic_stringIcNS_11char_traitsIcEENS1_IcEEEEiEEPvEEEEE7destroyB8ue170006INS_4pairIKS8_iEEvvEEvRSC_PT_, symObjAddr: 0xBA14, symBinAddr: 0x10000D594, symSize: 0x28 }
  - { offsetInCU: 0x22E58, offset: 0x22E58, size: 0x8, addend: 0x0, symName: __ZNSt3__116allocator_traitsINS_9allocatorINS_11__hash_nodeINS_17__hash_value_typeINS_12basic_stringIcNS_11char_traitsIcEENS1_IcEEEEiEEPvEEEEE10deallocateB8ue170006ERSC_PSB_m, symObjAddr: 0xBA3C, symBinAddr: 0x10000D5BC, symSize: 0x34 }
  - { offsetInCU: 0x22E9A, offset: 0x22E9A, size: 0x8, addend: 0x0, symName: __ZNSt3__14pairIKNS_12basic_stringIcNS_11char_traitsIcEENS_9allocatorIcEEEEiED1Ev, symObjAddr: 0xBA70, symBinAddr: 0x10000D5F0, symSize: 0x2C }
  - { offsetInCU: 0x22EC6, offset: 0x22EC6, size: 0x8, addend: 0x0, symName: __ZNSt3__14pairIKNS_12basic_stringIcNS_11char_traitsIcEENS_9allocatorIcEEEEiED2Ev, symObjAddr: 0xBA9C, symBinAddr: 0x10000D61C, symSize: 0x2C }
  - { offsetInCU: 0x22EF2, offset: 0x22EF2, size: 0x8, addend: 0x0, symName: __ZNSt3__19allocatorINS_11__hash_nodeINS_17__hash_value_typeINS_12basic_stringIcNS_11char_traitsIcEENS0_IcEEEEiEEPvEEE10deallocateB8ue170006EPSA_m, symObjAddr: 0xBAC8, symBinAddr: 0x10000D648, symSize: 0x44 }
  - { offsetInCU: 0x22F34, offset: 0x22F34, size: 0x8, addend: 0x0, symName: __ZNSt3__115__hash_iteratorIPNS_11__hash_nodeINS_17__hash_value_typeINS_12basic_stringIcNS_11char_traitsIcEENS_9allocatorIcEEEEiEEPvEEEC2B8ue170006EPNS_16__hash_node_baseISC_EE, symObjAddr: 0xBB0C, symBinAddr: 0x10000D68C, symSize: 0x20 }
  - { offsetInCU: 0x22F6D, offset: 0x22F6D, size: 0x8, addend: 0x0, symName: __ZNSt3__14pairINS_15__hash_iteratorIPNS_11__hash_nodeINS_17__hash_value_typeINS_12basic_stringIcNS_11char_traitsIcEENS_9allocatorIcEEEEiEEPvEEEEbEC2B8ue170006ISE_RbLSB_0EEEOT_OT0_, symObjAddr: 0xBB2C, symBinAddr: 0x10000D6AC, symSize: 0x38 }
  - { offsetInCU: 0x22FCB, offset: 0x22FCB, size: 0x8, addend: 0x0, symName: __ZNSt3__15tupleIJRKNS_12basic_stringIcNS_11char_traitsIcEENS_9allocatorIcEEEEEEC1B8ue170006INS_4_AndELi0EEES8_, symObjAddr: 0xBB64, symBinAddr: 0x10000D6E4, symSize: 0x34 }
  - { offsetInCU: 0x23013, offset: 0x23013, size: 0x8, addend: 0x0, symName: __ZNSt3__15tupleIJRKNS_12basic_stringIcNS_11char_traitsIcEENS_9allocatorIcEEEEEEC2B8ue170006INS_4_AndELi0EEES8_, symObjAddr: 0xBB98, symBinAddr: 0x10000D718, symSize: 0x34 }
  - { offsetInCU: 0x2305B, offset: 0x2305B, size: 0x8, addend: 0x0, symName: __ZNSt3__112__tuple_implINS_15__tuple_indicesIJLm0EEEEJRKNS_12basic_stringIcNS_11char_traitsIcEENS_9allocatorIcEEEEEEC1B8ue170006IJLm0EEJSA_EJEJEJSA_EEENS1_IJXspT_EEEENS_13__tuple_typesIJDpT0_EEENS1_IJXspT1_EEEENSE_IJDpT2_EEEDpOT3_, symObjAddr: 0xBBCC, symBinAddr: 0x10000D74C, symSize: 0x34 }
  - { offsetInCU: 0x230EC, offset: 0x230EC, size: 0x8, addend: 0x0, symName: __ZNSt3__112__tuple_implINS_15__tuple_indicesIJLm0EEEEJRKNS_12basic_stringIcNS_11char_traitsIcEENS_9allocatorIcEEEEEEC2B8ue170006IJLm0EEJSA_EJEJEJSA_EEENS1_IJXspT_EEEENS_13__tuple_typesIJDpT0_EEENS1_IJXspT1_EEEENSE_IJDpT2_EEEDpOT3_, symObjAddr: 0xBC00, symBinAddr: 0x10000D780, symSize: 0x34 }
  - { offsetInCU: 0x2317D, offset: 0x2317D, size: 0x8, addend: 0x0, symName: __ZNSt3__112__tuple_leafILm0ERKNS_12basic_stringIcNS_11char_traitsIcEENS_9allocatorIcEEEELb0EEC2B8ue170006IS8_vEEOT_, symObjAddr: 0xBC34, symBinAddr: 0x10000D7B4, symSize: 0x20 }
  - { offsetInCU: 0x231C0, offset: 0x231C0, size: 0x8, addend: 0x0, symName: __ZNSt3__114pointer_traitsIPNS_17__hash_value_typeINS_12basic_stringIcNS_11char_traitsIcEENS_9allocatorIcEEEEiEEE10pointer_toB8ue170006ERS8_, symObjAddr: 0xBC54, symBinAddr: 0x10000D7D4, symSize: 0x14 }
  - { offsetInCU: 0x231E8, offset: 0x231E8, size: 0x8, addend: 0x0, symName: __ZNSt3__16vectorIN5graph4edgeENS_9allocatorIS2_EEE22__construct_one_at_endB8ue170006IJS2_EEEvDpOT_, symObjAddr: 0xBC68, symBinAddr: 0x10000D7E8, symSize: 0x90 }
  - { offsetInCU: 0x23237, offset: 0x23237, size: 0x8, addend: 0x0, symName: __ZNSt3__16vectorIN5graph4edgeENS_9allocatorIS2_EEE21__push_back_slow_pathIS2_EEvOT_, symObjAddr: 0xBCF8, symBinAddr: 0x10000D878, symSize: 0xD8 }
  - { offsetInCU: 0x232AE, offset: 0x232AE, size: 0x8, addend: 0x0, symName: __ZNSt3__16vectorIN5graph4edgeENS_9allocatorIS2_EEE21_ConstructTransactionC1B8ue170006ERS5_m, symObjAddr: 0xBDD0, symBinAddr: 0x10000D950, symSize: 0x3C }
  - { offsetInCU: 0x232F6, offset: 0x232F6, size: 0x8, addend: 0x0, symName: __ZNSt3__116allocator_traitsINS_9allocatorIN5graph4edgeEEEE9constructB8ue170006IS3_JS3_EvEEvRS4_PT_DpOT0_, symObjAddr: 0xBE0C, symBinAddr: 0x10000D98C, symSize: 0x34 }
  - { offsetInCU: 0x2334D, offset: 0x2334D, size: 0x8, addend: 0x0, symName: __ZNSt3__16vectorIN5graph4edgeENS_9allocatorIS2_EEE21_ConstructTransactionD1B8ue170006Ev, symObjAddr: 0xBE40, symBinAddr: 0x10000D9C0, symSize: 0x2C }
  - { offsetInCU: 0x23377, offset: 0x23377, size: 0x8, addend: 0x0, symName: __ZNSt3__16vectorIN5graph4edgeENS_9allocatorIS2_EEE21_ConstructTransactionC2B8ue170006ERS5_m, symObjAddr: 0xBE6C, symBinAddr: 0x10000D9EC, symSize: 0x44 }
  - { offsetInCU: 0x233BF, offset: 0x233BF, size: 0x8, addend: 0x0, symName: __ZNSt3__19allocatorIN5graph4edgeEE9constructB8ue170006IS2_JS2_EEEvPT_DpOT0_, symObjAddr: 0xBEB0, symBinAddr: 0x10000DA30, symSize: 0x28 }
  - { offsetInCU: 0x23415, offset: 0x23415, size: 0x8, addend: 0x0, symName: __ZNSt3__16vectorIN5graph4edgeENS_9allocatorIS2_EEE21_ConstructTransactionD2B8ue170006Ev, symObjAddr: 0xBED8, symBinAddr: 0x10000DA58, symSize: 0x20 }
  - { offsetInCU: 0x2343F, offset: 0x2343F, size: 0x8, addend: 0x0, symName: __ZNKSt3__16vectorIN5graph4edgeENS_9allocatorIS2_EEE11__recommendB8ue170006Em, symObjAddr: 0xBEF8, symBinAddr: 0x10000DA78, symSize: 0xB4 }
  - { offsetInCU: 0x23494, offset: 0x23494, size: 0x8, addend: 0x0, symName: __ZNSt3__114__split_bufferIN5graph4edgeERNS_9allocatorIS2_EEEC1EmmS5_, symObjAddr: 0xBFAC, symBinAddr: 0x10000DB2C, symSize: 0x44 }
  - { offsetInCU: 0x234EA, offset: 0x234EA, size: 0x8, addend: 0x0, symName: __ZNSt3__114__split_bufferIN5graph4edgeERNS_9allocatorIS2_EEED1Ev, symObjAddr: 0xC100, symBinAddr: 0x10000DC80, symSize: 0x2C }
  - { offsetInCU: 0x23516, offset: 0x23516, size: 0x8, addend: 0x0, symName: __ZNKSt3__16vectorIN5graph4edgeENS_9allocatorIS2_EEE8max_sizeEv, symObjAddr: 0xC12C, symBinAddr: 0x10000DCAC, symSize: 0x60 }
  - { offsetInCU: 0x2353E, offset: 0x2353E, size: 0x8, addend: 0x0, symName: __ZNKSt3__16vectorIN5graph4edgeENS_9allocatorIS2_EEE20__throw_length_errorB8ue170006Ev, symObjAddr: 0xC18C, symBinAddr: 0x10000DD0C, symSize: 0x1C }
  - { offsetInCU: 0x2356E, offset: 0x2356E, size: 0x8, addend: 0x0, symName: __ZNSt3__116allocator_traitsINS_9allocatorIN5graph4edgeEEEE8max_sizeB8ue170006IS4_vEEmRKS4_, symObjAddr: 0xC1A8, symBinAddr: 0x10000DD28, symSize: 0x24 }
  - { offsetInCU: 0x2359C, offset: 0x2359C, size: 0x8, addend: 0x0, symName: __ZNKSt3__16vectorIN5graph4edgeENS_9allocatorIS2_EEE7__allocB8ue170006Ev, symObjAddr: 0xC1CC, symBinAddr: 0x10000DD4C, symSize: 0x28 }
  - { offsetInCU: 0x235C2, offset: 0x235C2, size: 0x8, addend: 0x0, symName: __ZNKSt3__19allocatorIN5graph4edgeEE8max_sizeB8ue170006Ev, symObjAddr: 0xC1F4, symBinAddr: 0x10000DD74, symSize: 0x14 }
  - { offsetInCU: 0x235E8, offset: 0x235E8, size: 0x8, addend: 0x0, symName: __ZNKSt3__117__compressed_pairIPN5graph4edgeENS_9allocatorIS2_EEE6secondB8ue170006Ev, symObjAddr: 0xC208, symBinAddr: 0x10000DD88, symSize: 0x24 }
  - { offsetInCU: 0x2360E, offset: 0x2360E, size: 0x8, addend: 0x0, symName: __ZNKSt3__122__compressed_pair_elemINS_9allocatorIN5graph4edgeEEELi1ELb1EE5__getB8ue170006Ev, symObjAddr: 0xC22C, symBinAddr: 0x10000DDAC, symSize: 0x14 }
  - { offsetInCU: 0x23634, offset: 0x23634, size: 0x8, addend: 0x0, symName: __ZNSt3__114__split_bufferIN5graph4edgeERNS_9allocatorIS2_EEEC2EmmS5_, symObjAddr: 0xC240, symBinAddr: 0x10000DDC0, symSize: 0xD4 }
  - { offsetInCU: 0x236A8, offset: 0x236A8, size: 0x8, addend: 0x0, symName: __ZNSt3__117__compressed_pairIPN5graph4edgeERNS_9allocatorIS2_EEEC1B8ue170006IDnS6_EEOT_OT0_, symObjAddr: 0xC314, symBinAddr: 0x10000DE94, symSize: 0x3C }
  - { offsetInCU: 0x23700, offset: 0x23700, size: 0x8, addend: 0x0, symName: __ZNSt3__114__split_bufferIN5graph4edgeERNS_9allocatorIS2_EEE7__allocB8ue170006Ev, symObjAddr: 0xC390, symBinAddr: 0x10000DF10, symSize: 0x28 }
  - { offsetInCU: 0x23726, offset: 0x23726, size: 0x8, addend: 0x0, symName: __ZNSt3__114__split_bufferIN5graph4edgeERNS_9allocatorIS2_EEE9__end_capB8ue170006Ev, symObjAddr: 0xC3B8, symBinAddr: 0x10000DF38, symSize: 0x28 }
  - { offsetInCU: 0x2374C, offset: 0x2374C, size: 0x8, addend: 0x0, symName: __ZNSt3__117__compressed_pairIPN5graph4edgeERNS_9allocatorIS2_EEEC2B8ue170006IDnS6_EEOT_OT0_, symObjAddr: 0xC3E0, symBinAddr: 0x10000DF60, symSize: 0x48 }
  - { offsetInCU: 0x237A4, offset: 0x237A4, size: 0x8, addend: 0x0, symName: __ZNSt3__122__compressed_pair_elemIRNS_9allocatorIN5graph4edgeEEELi1ELb0EEC2B8ue170006IS5_vEEOT_, symObjAddr: 0xC428, symBinAddr: 0x10000DFA8, symSize: 0x20 }
  - { offsetInCU: 0x237E6, offset: 0x237E6, size: 0x8, addend: 0x0, symName: __ZNSt3__19allocatorIN5graph4edgeEE8allocateB8ue170006Em, symObjAddr: 0xC448, symBinAddr: 0x10000DFC8, symSize: 0x58 }
  - { offsetInCU: 0x2381A, offset: 0x2381A, size: 0x8, addend: 0x0, symName: __ZNSt3__117__compressed_pairIPN5graph4edgeERNS_9allocatorIS2_EEE6secondB8ue170006Ev, symObjAddr: 0xC4A0, symBinAddr: 0x10000E020, symSize: 0x28 }
  - { offsetInCU: 0x23840, offset: 0x23840, size: 0x8, addend: 0x0, symName: __ZNSt3__122__compressed_pair_elemIRNS_9allocatorIN5graph4edgeEEELi1ELb0EE5__getB8ue170006Ev, symObjAddr: 0xC4C8, symBinAddr: 0x10000E048, symSize: 0x18 }
  - { offsetInCU: 0x23866, offset: 0x23866, size: 0x8, addend: 0x0, symName: __ZNSt3__117__compressed_pairIPN5graph4edgeERNS_9allocatorIS2_EEE5firstB8ue170006Ev, symObjAddr: 0xC4E0, symBinAddr: 0x10000E060, symSize: 0x24 }
  - { offsetInCU: 0x2388C, offset: 0x2388C, size: 0x8, addend: 0x0, symName: __ZNSt3__116reverse_iteratorIPN5graph4edgeEEC1B8ue170006ES3_, symObjAddr: 0xC57C, symBinAddr: 0x10000E0FC, symSize: 0x34 }
  - { offsetInCU: 0x238C4, offset: 0x238C4, size: 0x8, addend: 0x0, symName: __ZNKSt3__116reverse_iteratorIPN5graph4edgeEE4baseB8ue170006Ev, symObjAddr: 0xC5B0, symBinAddr: 0x10000E130, symSize: 0x18 }
  - { offsetInCU: 0x238EA, offset: 0x238EA, size: 0x8, addend: 0x0, symName: __ZNKSt3__16vectorIN5graph4edgeENS_9allocatorIS2_EEE14__annotate_newB8ue170006Em, symObjAddr: 0xC604, symBinAddr: 0x10000E184, symSize: 0xAC }
  - { offsetInCU: 0x23942, offset: 0x23942, size: 0x8, addend: 0x0, symName: __ZNKSt3__111__move_loopINS_17_ClassicAlgPolicyEEclB8ue170006INS_16reverse_iteratorIPN5graph4edgeEEES8_S8_EENS_4pairIT_T1_EESA_T0_SB_, symObjAddr: 0xC9A0, symBinAddr: 0x10000E520, symSize: 0xA0 }
  - { offsetInCU: 0x239AD, offset: 0x239AD, size: 0x8, addend: 0x0, symName: __ZNSt3__18_IterOpsINS_17_ClassicAlgPolicyEE11__iter_moveB8ue170006IRNS_16reverse_iteratorIPN5graph4edgeEEEEENS_9enable_ifIXsr12is_referenceIDTdeclsr3stdE7declvalIRT_EEEEE5valueEDTclsr3stdE4movedeclsr3stdE7declvalISC_EEEEE4typeEOSB_, symObjAddr: 0xCBD4, symBinAddr: 0x10000E754, symSize: 0x28 }
  - { offsetInCU: 0x239D9, offset: 0x239D9, size: 0x8, addend: 0x0, symName: __ZNKSt3__116reverse_iteratorIPN5graph4edgeEEdeB8ue170006Ev, symObjAddr: 0xCBFC, symBinAddr: 0x10000E77C, symSize: 0x28 }
  - { offsetInCU: 0x23A0D, offset: 0x23A0D, size: 0x8, addend: 0x0, symName: __ZNSt3__116reverse_iteratorIPN5graph4edgeEEppB8ue170006Ev, symObjAddr: 0xCC24, symBinAddr: 0x10000E7A4, symSize: 0x20 }
  - { offsetInCU: 0x23A33, offset: 0x23A33, size: 0x8, addend: 0x0, symName: __ZNSt3__18_IterOpsINS_17_ClassicAlgPolicyEE25__validate_iter_referenceB8ue170006IRNS_16reverse_iteratorIPN5graph4edgeEEEEEvv, symObjAddr: 0xCC44, symBinAddr: 0x10000E7C4, symSize: 0x4 }
  - { offsetInCU: 0x23A51, offset: 0x23A51, size: 0x8, addend: 0x0, symName: __ZNSt3__118__unwrap_iter_implINS_16reverse_iteratorIPN5graph4edgeEEELb0EE8__unwrapB8ue170006ES5_, symObjAddr: 0xCC48, symBinAddr: 0x10000E7C8, symSize: 0x24 }
  - { offsetInCU: 0x23A79, offset: 0x23A79, size: 0x8, addend: 0x0, symName: __ZNSt3__14pairINS_16reverse_iteratorIPN5graph4edgeEEES5_EC1B8ue170006IS5_S5_LPv0EEEOT_OT0_, symObjAddr: 0xCC6C, symBinAddr: 0x10000E7EC, symSize: 0x3C }
  - { offsetInCU: 0x23AD7, offset: 0x23AD7, size: 0x8, addend: 0x0, symName: __ZNSt3__14pairINS_16reverse_iteratorIPN5graph4edgeEEES5_EC2B8ue170006IS5_S5_LPv0EEEOT_OT0_, symObjAddr: 0xCCA8, symBinAddr: 0x10000E828, symSize: 0x34 }
  - { offsetInCU: 0x23B35, offset: 0x23B35, size: 0x8, addend: 0x0, symName: __ZNSt3__118__unwrap_iter_implINS_16reverse_iteratorIPN5graph4edgeEEELb0EE8__rewrapB8ue170006ES5_S5_, symObjAddr: 0xCCDC, symBinAddr: 0x10000E85C, symSize: 0x2C }
  - { offsetInCU: 0x23B63, offset: 0x23B63, size: 0x8, addend: 0x0, symName: __ZNSt3__116reverse_iteratorIPN5graph4edgeEEC2B8ue170006ES3_, symObjAddr: 0xCD08, symBinAddr: 0x10000E888, symSize: 0x28 }
  - { offsetInCU: 0x23B9B, offset: 0x23B9B, size: 0x8, addend: 0x0, symName: __ZNSt3__114__split_bufferIN5graph4edgeERNS_9allocatorIS2_EEED2Ev, symObjAddr: 0xCD30, symBinAddr: 0x10000E8B0, symSize: 0x8C }
  - { offsetInCU: 0x23BC7, offset: 0x23BC7, size: 0x8, addend: 0x0, symName: __ZNSt3__114__split_bufferIN5graph4edgeERNS_9allocatorIS2_EEE5clearB8ue170006Ev, symObjAddr: 0xCDBC, symBinAddr: 0x10000E93C, symSize: 0x28 }
  - { offsetInCU: 0x23BED, offset: 0x23BED, size: 0x8, addend: 0x0, symName: __ZNKSt3__114__split_bufferIN5graph4edgeERNS_9allocatorIS2_EEE8capacityB8ue170006Ev, symObjAddr: 0xCDE4, symBinAddr: 0x10000E964, symSize: 0x40 }
  - { offsetInCU: 0x23C13, offset: 0x23C13, size: 0x8, addend: 0x0, symName: __ZNSt3__114__split_bufferIN5graph4edgeERNS_9allocatorIS2_EEE17__destruct_at_endB8ue170006EPS2_, symObjAddr: 0xCE24, symBinAddr: 0x10000E9A4, symSize: 0x2C }
  - { offsetInCU: 0x23C47, offset: 0x23C47, size: 0x8, addend: 0x0, symName: __ZNSt3__114__split_bufferIN5graph4edgeERNS_9allocatorIS2_EEE17__destruct_at_endB8ue170006EPS2_NS_17integral_constantIbLb0EEE, symObjAddr: 0xCE50, symBinAddr: 0x10000E9D0, symSize: 0x80 }
  - { offsetInCU: 0x23C88, offset: 0x23C88, size: 0x8, addend: 0x0, symName: __ZNKSt3__114__split_bufferIN5graph4edgeERNS_9allocatorIS2_EEE9__end_capB8ue170006Ev, symObjAddr: 0xCED0, symBinAddr: 0x10000EA50, symSize: 0x28 }
  - { offsetInCU: 0x23CAE, offset: 0x23CAE, size: 0x8, addend: 0x0, symName: __ZNKSt3__117__compressed_pairIPN5graph4edgeERNS_9allocatorIS2_EEE5firstB8ue170006Ev, symObjAddr: 0xCEF8, symBinAddr: 0x10000EA78, symSize: 0x24 }
  - { offsetInCU: 0x23CD4, offset: 0x23CD4, size: 0x8, addend: 0x0, symName: __ZN5graph4edgeC2Eid, symObjAddr: 0xCF1C, symBinAddr: 0x10000EA9C, symSize: 0x2C }
  - { offsetInCU: 0x23D38, offset: 0x23D38, size: 0x8, addend: 0x0, symName: __ZNKSt3__113basic_ostreamIcNS_11char_traitsIcEEE6sentrycvbB8ue170006Ev, symObjAddr: 0xD134, symBinAddr: 0x10000ECB4, symSize: 0x1C }
  - { offsetInCU: 0x23D5E, offset: 0x23D5E, size: 0x8, addend: 0x0, symName: __ZNSt3__119ostreambuf_iteratorIcNS_11char_traitsIcEEEC1B8ue170006ERNS_13basic_ostreamIcS2_EE, symObjAddr: 0xD390, symBinAddr: 0x10000EF10, symSize: 0x34 }
  - { offsetInCU: 0x23D96, offset: 0x23D96, size: 0x8, addend: 0x0, symName: __ZNKSt3__18ios_base5flagsB8ue170006Ev, symObjAddr: 0xD3C4, symBinAddr: 0x10000EF44, symSize: 0x18 }
  - { offsetInCU: 0x23DBE, offset: 0x23DBE, size: 0x8, addend: 0x0, symName: __ZNKSt3__19basic_iosIcNS_11char_traitsIcEEE4fillB8ue170006Ev, symObjAddr: 0xD3DC, symBinAddr: 0x10000EF5C, symSize: 0x64 }
  - { offsetInCU: 0x23DE6, offset: 0x23DE6, size: 0x8, addend: 0x0, symName: __ZNKSt3__119ostreambuf_iteratorIcNS_11char_traitsIcEEE6failedB8ue170006Ev, symObjAddr: 0xD440, symBinAddr: 0x10000EFC0, symSize: 0x24 }
  - { offsetInCU: 0x23E0C, offset: 0x23E0C, size: 0x8, addend: 0x0, symName: __ZNSt3__115basic_streambufIcNS_11char_traitsIcEEE5sputnB8ue170006EPKcl, symObjAddr: 0xD464, symBinAddr: 0x10000EFE4, symSize: 0x3C }
  - { offsetInCU: 0x23E4E, offset: 0x23E4E, size: 0x8, addend: 0x0, symName: __ZNSt3__112basic_stringIcNS_11char_traitsIcEENS_9allocatorIcEEEC1B8ue170006Emc, symObjAddr: 0xD4A0, symBinAddr: 0x10000F020, symSize: 0x3C }
  - { offsetInCU: 0x23E96, offset: 0x23E96, size: 0x8, addend: 0x0, symName: __ZNSt3__112basic_stringIcNS_11char_traitsIcEENS_9allocatorIcEEEC2B8ue170006Emc, symObjAddr: 0xD4DC, symBinAddr: 0x10000F05C, symSize: 0x4C }
  - { offsetInCU: 0x23EDE, offset: 0x23EDE, size: 0x8, addend: 0x0, symName: __ZNSt3__119ostreambuf_iteratorIcNS_11char_traitsIcEEEC2B8ue170006ERNS_13basic_ostreamIcS2_EE, symObjAddr: 0xD528, symBinAddr: 0x10000F0A8, symSize: 0x54 }
  - { offsetInCU: 0x23F16, offset: 0x23F16, size: 0x8, addend: 0x0, symName: __ZNSt3__114basic_ifstreamIcNS_11char_traitsIcEEED2Ev, symObjAddr: 0xD57C, symBinAddr: 0x10000F0FC, symSize: 0x64 }
  - { offsetInCU: 0x23F50, offset: 0x23F50, size: 0x8, addend: 0x0, symName: __ZTv0_n24_NSt3__114basic_ifstreamIcNS_11char_traitsIcEEED1Ev, symObjAddr: 0xD5E0, symBinAddr: 0x10000F160, symSize: 0x28 }
  - { offsetInCU: 0x23F67, offset: 0x23F67, size: 0x8, addend: 0x0, symName: __ZN5graph7name2idERKNSt3__112basic_stringIcNS0_11char_traitsIcEENS0_9allocatorIcEEEE, symObjAddr: 0xD608, symBinAddr: 0x10000F188, symSize: 0x68 }
  - { offsetInCU: 0x23F9C, offset: 0x23F9C, size: 0x8, addend: 0x0, symName: __ZN5graph12dijkstraHEAPEiRNSt3__16vectorINS_12vertex_labelENS0_9allocatorIS2_EEEE, symObjAddr: 0xD670, symBinAddr: 0x10000F1F0, symSize: 0x3EC }
  - { offsetInCU: 0x242D0, offset: 0x242D0, size: 0x8, addend: 0x0, symName: __ZN6pqueueC1Eib, symObjAddr: 0xDA5C, symBinAddr: 0x10000F5DC, symSize: 0x48 }
  - { offsetInCU: 0x24316, offset: 0x24316, size: 0x8, addend: 0x0, symName: __ZN5graph11init_reportERNSt3__16vectorINS_12vertex_labelENS0_9allocatorIS2_EEEE, symObjAddr: 0xDAA4, symBinAddr: 0x10000F624, symSize: 0xA4 }
  - { offsetInCU: 0x2435A, offset: 0x2435A, size: 0x8, addend: 0x0, symName: __ZN6pqueue6insertEid, symObjAddr: 0xDB48, symBinAddr: 0x10000F6C8, symSize: 0x144 }
  - { offsetInCU: 0x2439C, offset: 0x2439C, size: 0x8, addend: 0x0, symName: __ZN6pqueue4sizeEv, symObjAddr: 0xDC8C, symBinAddr: 0x10000F80C, symSize: 0x18 }
  - { offsetInCU: 0x243C2, offset: 0x243C2, size: 0x8, addend: 0x0, symName: __ZN6pqueue10delete_topERiRd, symObjAddr: 0xDCA4, symBinAddr: 0x10000F824, symSize: 0x120 }
  - { offsetInCU: 0x24406, offset: 0x24406, size: 0x8, addend: 0x0, symName: __ZNSt3__16vectorIN5graph4edgeENS_9allocatorIS2_EEE5beginB8ue170006Ev, symObjAddr: 0xDDC4, symBinAddr: 0x10000F944, symSize: 0x30 }
  - { offsetInCU: 0x2442E, offset: 0x2442E, size: 0x8, addend: 0x0, symName: __ZNSt3__16vectorIN5graph4edgeENS_9allocatorIS2_EEE3endB8ue170006Ev, symObjAddr: 0xDDF4, symBinAddr: 0x10000F974, symSize: 0x30 }
  - { offsetInCU: 0x24456, offset: 0x24456, size: 0x8, addend: 0x0, symName: __ZNKSt3__111__wrap_iterIPN5graph4edgeEEdeB8ue170006Ev, symObjAddr: 0xDE58, symBinAddr: 0x10000F9D8, symSize: 0x18 }
  - { offsetInCU: 0x2447C, offset: 0x2447C, size: 0x8, addend: 0x0, symName: __ZN6pqueue15change_priorityEid, symObjAddr: 0xDE70, symBinAddr: 0x10000F9F0, symSize: 0x10C }
  - { offsetInCU: 0x244CF, offset: 0x244CF, size: 0x8, addend: 0x0, symName: __ZNSt3__111__wrap_iterIPN5graph4edgeEEppB8ue170006Ev, symObjAddr: 0xDF7C, symBinAddr: 0x10000FAFC, symSize: 0x20 }
  - { offsetInCU: 0x244F5, offset: 0x244F5, size: 0x8, addend: 0x0, symName: __ZN6pqueueD1Ev, symObjAddr: 0xDF9C, symBinAddr: 0x10000FB1C, symSize: 0x2C }
  - { offsetInCU: 0x2451F, offset: 0x2451F, size: 0x8, addend: 0x0, symName: __ZN6pqueueC2Eib, symObjAddr: 0xDFC8, symBinAddr: 0x10000FB48, symSize: 0x158 }
  - { offsetInCU: 0x24582, offset: 0x24582, size: 0x8, addend: 0x0, symName: __ZNSt3__16vectorIN5graph12vertex_labelENS_9allocatorIS2_EEE5clearB8ue170006Ev, symObjAddr: 0xE120, symBinAddr: 0x10000FCA0, symSize: 0x44 }
  - { offsetInCU: 0x245B7, offset: 0x245B7, size: 0x8, addend: 0x0, symName: __ZNSt3__16vectorIN5graph12vertex_labelENS_9allocatorIS2_EEE9push_backB8ue170006EOS2_, symObjAddr: 0xE164, symBinAddr: 0x10000FCE4, symSize: 0x6C }
  - { offsetInCU: 0x245EE, offset: 0x245EE, size: 0x8, addend: 0x0, symName: __ZN5graph12vertex_labelC1Edici, symObjAddr: 0xE1D0, symBinAddr: 0x10000FD50, symSize: 0x4C }
  - { offsetInCU: 0x24650, offset: 0x24650, size: 0x8, addend: 0x0, symName: __ZNKSt3__16vectorIN5graph12vertex_labelENS_9allocatorIS2_EEE4sizeB8ue170006Ev, symObjAddr: 0xE21C, symBinAddr: 0x10000FD9C, symSize: 0x28 }
  - { offsetInCU: 0x24676, offset: 0x24676, size: 0x8, addend: 0x0, symName: __ZNSt3__16vectorIN5graph12vertex_labelENS_9allocatorIS2_EEE7__clearB8ue170006Ev, symObjAddr: 0xE244, symBinAddr: 0x10000FDC4, symSize: 0x28 }
  - { offsetInCU: 0x2469C, offset: 0x2469C, size: 0x8, addend: 0x0, symName: __ZNKSt3__16vectorIN5graph12vertex_labelENS_9allocatorIS2_EEE17__annotate_shrinkB8ue170006Em, symObjAddr: 0xE26C, symBinAddr: 0x10000FDEC, symSize: 0xD0 }
  - { offsetInCU: 0x246D1, offset: 0x246D1, size: 0x8, addend: 0x0, symName: __ZNSt3__16vectorIN5graph12vertex_labelENS_9allocatorIS2_EEE22__base_destruct_at_endB8ue170006EPS2_, symObjAddr: 0xE33C, symBinAddr: 0x10000FEBC, symSize: 0x8C }
  - { offsetInCU: 0x24715, offset: 0x24715, size: 0x8, addend: 0x0, symName: __ZNSt3__116allocator_traitsINS_9allocatorIN5graph12vertex_labelEEEE7destroyB8ue170006IS3_vEEvRS4_PT_, symObjAddr: 0xE3C8, symBinAddr: 0x10000FF48, symSize: 0x2C }
  - { offsetInCU: 0x24752, offset: 0x24752, size: 0x8, addend: 0x0, symName: __ZNSt3__16vectorIN5graph12vertex_labelENS_9allocatorIS2_EEE7__allocB8ue170006Ev, symObjAddr: 0xE3F4, symBinAddr: 0x10000FF74, symSize: 0x28 }
  - { offsetInCU: 0x24778, offset: 0x24778, size: 0x8, addend: 0x0, symName: __ZNSt3__19allocatorIN5graph12vertex_labelEE7destroyB8ue170006EPS2_, symObjAddr: 0xE430, symBinAddr: 0x10000FFB0, symSize: 0x14 }
  - { offsetInCU: 0x247AC, offset: 0x247AC, size: 0x8, addend: 0x0, symName: __ZNSt3__117__compressed_pairIPN5graph12vertex_labelENS_9allocatorIS2_EEE6secondB8ue170006Ev, symObjAddr: 0xE444, symBinAddr: 0x10000FFC4, symSize: 0x24 }
  - { offsetInCU: 0x247D2, offset: 0x247D2, size: 0x8, addend: 0x0, symName: __ZNSt3__122__compressed_pair_elemINS_9allocatorIN5graph12vertex_labelEEELi1ELb1EE5__getB8ue170006Ev, symObjAddr: 0xE468, symBinAddr: 0x10000FFE8, symSize: 0x14 }
  - { offsetInCU: 0x247F8, offset: 0x247F8, size: 0x8, addend: 0x0, symName: __ZNKSt3__16vectorIN5graph12vertex_labelENS_9allocatorIS2_EEE31__annotate_contiguous_containerB8ue170006EPKvS7_S7_S7_, symObjAddr: 0xE47C, symBinAddr: 0x10000FFFC, symSize: 0x20 }
  - { offsetInCU: 0x2484A, offset: 0x2484A, size: 0x8, addend: 0x0, symName: __ZNKSt3__16vectorIN5graph12vertex_labelENS_9allocatorIS2_EEE4dataB8ue170006Ev, symObjAddr: 0xE49C, symBinAddr: 0x10001001C, symSize: 0x28 }
  - { offsetInCU: 0x24870, offset: 0x24870, size: 0x8, addend: 0x0, symName: __ZNKSt3__16vectorIN5graph12vertex_labelENS_9allocatorIS2_EEE8capacityB8ue170006Ev, symObjAddr: 0xE4C4, symBinAddr: 0x100010044, symSize: 0x40 }
  - { offsetInCU: 0x24896, offset: 0x24896, size: 0x8, addend: 0x0, symName: __ZNKSt3__16vectorIN5graph12vertex_labelENS_9allocatorIS2_EEE9__end_capB8ue170006Ev, symObjAddr: 0xE504, symBinAddr: 0x100010084, symSize: 0x28 }
  - { offsetInCU: 0x248BC, offset: 0x248BC, size: 0x8, addend: 0x0, symName: __ZNKSt3__117__compressed_pairIPN5graph12vertex_labelENS_9allocatorIS2_EEE5firstB8ue170006Ev, symObjAddr: 0xE52C, symBinAddr: 0x1000100AC, symSize: 0x24 }
  - { offsetInCU: 0x248E2, offset: 0x248E2, size: 0x8, addend: 0x0, symName: __ZNKSt3__122__compressed_pair_elemIPN5graph12vertex_labelELi0ELb0EE5__getB8ue170006Ev, symObjAddr: 0xE550, symBinAddr: 0x1000100D0, symSize: 0x14 }
  - { offsetInCU: 0x24908, offset: 0x24908, size: 0x8, addend: 0x0, symName: __ZNSt3__16vectorIN5graph12vertex_labelENS_9allocatorIS2_EEE9__end_capB8ue170006Ev, symObjAddr: 0xE564, symBinAddr: 0x1000100E4, symSize: 0x28 }
  - { offsetInCU: 0x24933, offset: 0x24933, size: 0x8, addend: 0x0, symName: __ZNSt3__16vectorIN5graph12vertex_labelENS_9allocatorIS2_EEE22__construct_one_at_endB8ue170006IJS2_EEEvDpOT_, symObjAddr: 0xE58C, symBinAddr: 0x10001010C, symSize: 0x90 }
  - { offsetInCU: 0x24982, offset: 0x24982, size: 0x8, addend: 0x0, symName: __ZNSt3__16vectorIN5graph12vertex_labelENS_9allocatorIS2_EEE21__push_back_slow_pathIS2_EEvOT_, symObjAddr: 0xE61C, symBinAddr: 0x10001019C, symSize: 0xD8 }
  - { offsetInCU: 0x249E0, offset: 0x249E0, size: 0x8, addend: 0x0, symName: __ZNSt3__117__compressed_pairIPN5graph12vertex_labelENS_9allocatorIS2_EEE5firstB8ue170006Ev, symObjAddr: 0xE6F4, symBinAddr: 0x100010274, symSize: 0x24 }
  - { offsetInCU: 0x24A06, offset: 0x24A06, size: 0x8, addend: 0x0, symName: __ZNSt3__122__compressed_pair_elemIPN5graph12vertex_labelELi0ELb0EE5__getB8ue170006Ev, symObjAddr: 0xE718, symBinAddr: 0x100010298, symSize: 0x14 }
  - { offsetInCU: 0x24A45, offset: 0x24A45, size: 0x8, addend: 0x0, symName: __ZNSt3__16vectorIN5graph12vertex_labelENS_9allocatorIS2_EEE21_ConstructTransactionC1B8ue170006ERS5_m, symObjAddr: 0xE72C, symBinAddr: 0x1000102AC, symSize: 0x3C }
  - { offsetInCU: 0x24A8D, offset: 0x24A8D, size: 0x8, addend: 0x0, symName: __ZNSt3__116allocator_traitsINS_9allocatorIN5graph12vertex_labelEEEE9constructB8ue170006IS3_JS3_EvEEvRS4_PT_DpOT0_, symObjAddr: 0xE768, symBinAddr: 0x1000102E8, symSize: 0x34 }
  - { offsetInCU: 0x24AE4, offset: 0x24AE4, size: 0x8, addend: 0x0, symName: __ZNSt3__16vectorIN5graph12vertex_labelENS_9allocatorIS2_EEE21_ConstructTransactionD1B8ue170006Ev, symObjAddr: 0xE79C, symBinAddr: 0x10001031C, symSize: 0x2C }
  - { offsetInCU: 0x24B0E, offset: 0x24B0E, size: 0x8, addend: 0x0, symName: __ZNSt3__16vectorIN5graph12vertex_labelENS_9allocatorIS2_EEE21_ConstructTransactionC2B8ue170006ERS5_m, symObjAddr: 0xE7C8, symBinAddr: 0x100010348, symSize: 0x4C }
  - { offsetInCU: 0x24B56, offset: 0x24B56, size: 0x8, addend: 0x0, symName: __ZNSt3__19allocatorIN5graph12vertex_labelEE9constructB8ue170006IS2_JS2_EEEvPT_DpOT0_, symObjAddr: 0xE814, symBinAddr: 0x100010394, symSize: 0x30 }
  - { offsetInCU: 0x24BAC, offset: 0x24BAC, size: 0x8, addend: 0x0, symName: __ZNSt3__16vectorIN5graph12vertex_labelENS_9allocatorIS2_EEE21_ConstructTransactionD2B8ue170006Ev, symObjAddr: 0xE844, symBinAddr: 0x1000103C4, symSize: 0x20 }
  - { offsetInCU: 0x24BD6, offset: 0x24BD6, size: 0x8, addend: 0x0, symName: __ZNKSt3__16vectorIN5graph12vertex_labelENS_9allocatorIS2_EEE11__recommendB8ue170006Em, symObjAddr: 0xE864, symBinAddr: 0x1000103E4, symSize: 0xB4 }
  - { offsetInCU: 0x24C2B, offset: 0x24C2B, size: 0x8, addend: 0x0, symName: __ZNSt3__114__split_bufferIN5graph12vertex_labelERNS_9allocatorIS2_EEEC1EmmS5_, symObjAddr: 0xE918, symBinAddr: 0x100010498, symSize: 0x44 }
  - { offsetInCU: 0x24C81, offset: 0x24C81, size: 0x8, addend: 0x0, symName: __ZNSt3__114__split_bufferIN5graph12vertex_labelERNS_9allocatorIS2_EEED1Ev, symObjAddr: 0xEA6C, symBinAddr: 0x1000105EC, symSize: 0x2C }
  - { offsetInCU: 0x24CAD, offset: 0x24CAD, size: 0x8, addend: 0x0, symName: __ZNKSt3__16vectorIN5graph12vertex_labelENS_9allocatorIS2_EEE8max_sizeEv, symObjAddr: 0xEA98, symBinAddr: 0x100010618, symSize: 0x60 }
  - { offsetInCU: 0x24CD5, offset: 0x24CD5, size: 0x8, addend: 0x0, symName: __ZNKSt3__16vectorIN5graph12vertex_labelENS_9allocatorIS2_EEE20__throw_length_errorB8ue170006Ev, symObjAddr: 0xEAF8, symBinAddr: 0x100010678, symSize: 0x1C }
  - { offsetInCU: 0x24D05, offset: 0x24D05, size: 0x8, addend: 0x0, symName: __ZNSt3__116allocator_traitsINS_9allocatorIN5graph12vertex_labelEEEE8max_sizeB8ue170006IS4_vEEmRKS4_, symObjAddr: 0xEB14, symBinAddr: 0x100010694, symSize: 0x24 }
  - { offsetInCU: 0x24D33, offset: 0x24D33, size: 0x8, addend: 0x0, symName: __ZNKSt3__16vectorIN5graph12vertex_labelENS_9allocatorIS2_EEE7__allocB8ue170006Ev, symObjAddr: 0xEB38, symBinAddr: 0x1000106B8, symSize: 0x28 }
  - { offsetInCU: 0x24D59, offset: 0x24D59, size: 0x8, addend: 0x0, symName: __ZNKSt3__19allocatorIN5graph12vertex_labelEE8max_sizeB8ue170006Ev, symObjAddr: 0xEB60, symBinAddr: 0x1000106E0, symSize: 0x18 }
  - { offsetInCU: 0x24D7F, offset: 0x24D7F, size: 0x8, addend: 0x0, symName: __ZNKSt3__117__compressed_pairIPN5graph12vertex_labelENS_9allocatorIS2_EEE6secondB8ue170006Ev, symObjAddr: 0xEB78, symBinAddr: 0x1000106F8, symSize: 0x24 }
  - { offsetInCU: 0x24DA5, offset: 0x24DA5, size: 0x8, addend: 0x0, symName: __ZNKSt3__122__compressed_pair_elemINS_9allocatorIN5graph12vertex_labelEEELi1ELb1EE5__getB8ue170006Ev, symObjAddr: 0xEB9C, symBinAddr: 0x10001071C, symSize: 0x14 }
  - { offsetInCU: 0x24DCB, offset: 0x24DCB, size: 0x8, addend: 0x0, symName: __ZNSt3__114__split_bufferIN5graph12vertex_labelERNS_9allocatorIS2_EEEC2EmmS5_, symObjAddr: 0xEBB0, symBinAddr: 0x100010730, symSize: 0xE0 }
  - { offsetInCU: 0x24E3F, offset: 0x24E3F, size: 0x8, addend: 0x0, symName: __ZNSt3__117__compressed_pairIPN5graph12vertex_labelERNS_9allocatorIS2_EEEC1B8ue170006IDnS6_EEOT_OT0_, symObjAddr: 0xEC90, symBinAddr: 0x100010810, symSize: 0x3C }
  - { offsetInCU: 0x24E97, offset: 0x24E97, size: 0x8, addend: 0x0, symName: __ZNSt3__114__split_bufferIN5graph12vertex_labelERNS_9allocatorIS2_EEE7__allocB8ue170006Ev, symObjAddr: 0xED0C, symBinAddr: 0x10001088C, symSize: 0x28 }
  - { offsetInCU: 0x24EBD, offset: 0x24EBD, size: 0x8, addend: 0x0, symName: __ZNSt3__114__split_bufferIN5graph12vertex_labelERNS_9allocatorIS2_EEE9__end_capB8ue170006Ev, symObjAddr: 0xED34, symBinAddr: 0x1000108B4, symSize: 0x28 }
  - { offsetInCU: 0x24EE3, offset: 0x24EE3, size: 0x8, addend: 0x0, symName: __ZNSt3__117__compressed_pairIPN5graph12vertex_labelERNS_9allocatorIS2_EEEC2B8ue170006IDnS6_EEOT_OT0_, symObjAddr: 0xED5C, symBinAddr: 0x1000108DC, symSize: 0x48 }
  - { offsetInCU: 0x24F3B, offset: 0x24F3B, size: 0x8, addend: 0x0, symName: __ZNSt3__122__compressed_pair_elemIPN5graph12vertex_labelELi0ELb0EEC2B8ue170006IDnvEEOT_, symObjAddr: 0xEDA4, symBinAddr: 0x100010924, symSize: 0x1C }
  - { offsetInCU: 0x24F7D, offset: 0x24F7D, size: 0x8, addend: 0x0, symName: __ZNSt3__122__compressed_pair_elemIRNS_9allocatorIN5graph12vertex_labelEEELi1ELb0EEC2B8ue170006IS5_vEEOT_, symObjAddr: 0xEDC0, symBinAddr: 0x100010940, symSize: 0x20 }
  - { offsetInCU: 0x24FBF, offset: 0x24FBF, size: 0x8, addend: 0x0, symName: __ZNSt3__19allocatorIN5graph12vertex_labelEE8allocateB8ue170006Em, symObjAddr: 0xEDE0, symBinAddr: 0x100010960, symSize: 0x5C }
  - { offsetInCU: 0x24FF3, offset: 0x24FF3, size: 0x8, addend: 0x0, symName: __ZNSt3__117__compressed_pairIPN5graph12vertex_labelERNS_9allocatorIS2_EEE6secondB8ue170006Ev, symObjAddr: 0xEE3C, symBinAddr: 0x1000109BC, symSize: 0x28 }
  - { offsetInCU: 0x25019, offset: 0x25019, size: 0x8, addend: 0x0, symName: __ZNSt3__122__compressed_pair_elemIRNS_9allocatorIN5graph12vertex_labelEEELi1ELb0EE5__getB8ue170006Ev, symObjAddr: 0xEE64, symBinAddr: 0x1000109E4, symSize: 0x18 }
  - { offsetInCU: 0x2503F, offset: 0x2503F, size: 0x8, addend: 0x0, symName: __ZNSt3__117__compressed_pairIPN5graph12vertex_labelERNS_9allocatorIS2_EEE5firstB8ue170006Ev, symObjAddr: 0xEE7C, symBinAddr: 0x1000109FC, symSize: 0x24 }
  - { offsetInCU: 0x25065, offset: 0x25065, size: 0x8, addend: 0x0, symName: __ZNKSt3__16vectorIN5graph12vertex_labelENS_9allocatorIS2_EEE17__annotate_deleteB8ue170006Ev, symObjAddr: 0xEEA0, symBinAddr: 0x100010A20, symSize: 0xD4 }
  - { offsetInCU: 0x2508B, offset: 0x2508B, size: 0x8, addend: 0x0, symName: __ZNSt3__116reverse_iteratorIPN5graph12vertex_labelEEC1B8ue170006ES3_, symObjAddr: 0xEFEC, symBinAddr: 0x100010B6C, symSize: 0x34 }
  - { offsetInCU: 0x250C3, offset: 0x250C3, size: 0x8, addend: 0x0, symName: __ZNKSt3__116reverse_iteratorIPN5graph12vertex_labelEE4baseB8ue170006Ev, symObjAddr: 0xF020, symBinAddr: 0x100010BA0, symSize: 0x18 }
  - { offsetInCU: 0x250E9, offset: 0x250E9, size: 0x8, addend: 0x0, symName: __ZNKSt3__16vectorIN5graph12vertex_labelENS_9allocatorIS2_EEE14__annotate_newB8ue170006Em, symObjAddr: 0xF074, symBinAddr: 0x100010BF4, symSize: 0xC8 }
  - { offsetInCU: 0x25137, offset: 0x25137, size: 0x8, addend: 0x0, symName: __ZNKSt3__111__move_loopINS_17_ClassicAlgPolicyEEclB8ue170006INS_16reverse_iteratorIPN5graph12vertex_labelEEES8_S8_EENS_4pairIT_T1_EESA_T0_SB_, symObjAddr: 0xF42C, symBinAddr: 0x100010FAC, symSize: 0xA8 }
  - { offsetInCU: 0x251A2, offset: 0x251A2, size: 0x8, addend: 0x0, symName: __ZNSt3__18_IterOpsINS_17_ClassicAlgPolicyEE11__iter_moveB8ue170006IRNS_16reverse_iteratorIPN5graph12vertex_labelEEEEENS_9enable_ifIXsr12is_referenceIDTdeclsr3stdE7declvalIRT_EEEEE5valueEDTclsr3stdE4movedeclsr3stdE7declvalISC_EEEEE4typeEOSB_, symObjAddr: 0xF668, symBinAddr: 0x1000111E8, symSize: 0x28 }
  - { offsetInCU: 0x251CE, offset: 0x251CE, size: 0x8, addend: 0x0, symName: __ZNKSt3__116reverse_iteratorIPN5graph12vertex_labelEEdeB8ue170006Ev, symObjAddr: 0xF690, symBinAddr: 0x100011210, symSize: 0x28 }
  - { offsetInCU: 0x25202, offset: 0x25202, size: 0x8, addend: 0x0, symName: __ZNSt3__116reverse_iteratorIPN5graph12vertex_labelEEppB8ue170006Ev, symObjAddr: 0xF6B8, symBinAddr: 0x100011238, symSize: 0x20 }
  - { offsetInCU: 0x25228, offset: 0x25228, size: 0x8, addend: 0x0, symName: __ZNSt3__18_IterOpsINS_17_ClassicAlgPolicyEE25__validate_iter_referenceB8ue170006IRNS_16reverse_iteratorIPN5graph12vertex_labelEEEEEvv, symObjAddr: 0xF6D8, symBinAddr: 0x100011258, symSize: 0x4 }
  - { offsetInCU: 0x25246, offset: 0x25246, size: 0x8, addend: 0x0, symName: __ZNSt3__118__unwrap_iter_implINS_16reverse_iteratorIPN5graph12vertex_labelEEELb0EE8__unwrapB8ue170006ES5_, symObjAddr: 0xF6DC, symBinAddr: 0x10001125C, symSize: 0x24 }
  - { offsetInCU: 0x2526E, offset: 0x2526E, size: 0x8, addend: 0x0, symName: __ZNSt3__14pairINS_16reverse_iteratorIPN5graph12vertex_labelEEES5_EC1B8ue170006IS5_S5_LPv0EEEOT_OT0_, symObjAddr: 0xF700, symBinAddr: 0x100011280, symSize: 0x3C }
  - { offsetInCU: 0x252CC, offset: 0x252CC, size: 0x8, addend: 0x0, symName: __ZNSt3__14pairINS_16reverse_iteratorIPN5graph12vertex_labelEEES5_EC2B8ue170006IS5_S5_LPv0EEEOT_OT0_, symObjAddr: 0xF73C, symBinAddr: 0x1000112BC, symSize: 0x34 }
  - { offsetInCU: 0x2532A, offset: 0x2532A, size: 0x8, addend: 0x0, symName: __ZNSt3__118__unwrap_iter_implINS_16reverse_iteratorIPN5graph12vertex_labelEEELb0EE8__rewrapB8ue170006ES5_S5_, symObjAddr: 0xF770, symBinAddr: 0x1000112F0, symSize: 0x2C }
  - { offsetInCU: 0x25358, offset: 0x25358, size: 0x8, addend: 0x0, symName: __ZNSt3__116reverse_iteratorIPN5graph12vertex_labelEEC2B8ue170006ES3_, symObjAddr: 0xF79C, symBinAddr: 0x10001131C, symSize: 0x28 }
  - { offsetInCU: 0x25390, offset: 0x25390, size: 0x8, addend: 0x0, symName: __ZNSt3__114__split_bufferIN5graph12vertex_labelERNS_9allocatorIS2_EEED2Ev, symObjAddr: 0xF7C4, symBinAddr: 0x100011344, symSize: 0x8C }
  - { offsetInCU: 0x253BC, offset: 0x253BC, size: 0x8, addend: 0x0, symName: __ZNSt3__114__split_bufferIN5graph12vertex_labelERNS_9allocatorIS2_EEE5clearB8ue170006Ev, symObjAddr: 0xF850, symBinAddr: 0x1000113D0, symSize: 0x28 }
  - { offsetInCU: 0x253E2, offset: 0x253E2, size: 0x8, addend: 0x0, symName: __ZNSt3__116allocator_traitsINS_9allocatorIN5graph12vertex_labelEEEE10deallocateB8ue170006ERS4_PS3_m, symObjAddr: 0xF878, symBinAddr: 0x1000113F8, symSize: 0x34 }
  - { offsetInCU: 0x25424, offset: 0x25424, size: 0x8, addend: 0x0, symName: __ZNKSt3__114__split_bufferIN5graph12vertex_labelERNS_9allocatorIS2_EEE8capacityB8ue170006Ev, symObjAddr: 0xF8AC, symBinAddr: 0x10001142C, symSize: 0x40 }
  - { offsetInCU: 0x2544A, offset: 0x2544A, size: 0x8, addend: 0x0, symName: __ZNSt3__114__split_bufferIN5graph12vertex_labelERNS_9allocatorIS2_EEE17__destruct_at_endB8ue170006EPS2_, symObjAddr: 0xF8EC, symBinAddr: 0x10001146C, symSize: 0x2C }
  - { offsetInCU: 0x2547E, offset: 0x2547E, size: 0x8, addend: 0x0, symName: __ZNSt3__114__split_bufferIN5graph12vertex_labelERNS_9allocatorIS2_EEE17__destruct_at_endB8ue170006EPS2_NS_17integral_constantIbLb0EEE, symObjAddr: 0xF918, symBinAddr: 0x100011498, symSize: 0x80 }
  - { offsetInCU: 0x254BF, offset: 0x254BF, size: 0x8, addend: 0x0, symName: __ZNSt3__19allocatorIN5graph12vertex_labelEE10deallocateB8ue170006EPS2_m, symObjAddr: 0xF998, symBinAddr: 0x100011518, symSize: 0x44 }
  - { offsetInCU: 0x25501, offset: 0x25501, size: 0x8, addend: 0x0, symName: __ZNKSt3__114__split_bufferIN5graph12vertex_labelERNS_9allocatorIS2_EEE9__end_capB8ue170006Ev, symObjAddr: 0xF9DC, symBinAddr: 0x10001155C, symSize: 0x28 }
  - { offsetInCU: 0x25527, offset: 0x25527, size: 0x8, addend: 0x0, symName: __ZNKSt3__117__compressed_pairIPN5graph12vertex_labelERNS_9allocatorIS2_EEE5firstB8ue170006Ev, symObjAddr: 0xFA04, symBinAddr: 0x100011584, symSize: 0x24 }
  - { offsetInCU: 0x2554D, offset: 0x2554D, size: 0x8, addend: 0x0, symName: __ZN5graph12vertex_labelC2Edici, symObjAddr: 0xFA28, symBinAddr: 0x1000115A8, symSize: 0x40 }
  - { offsetInCU: 0x255AF, offset: 0x255AF, size: 0x8, addend: 0x0, symName: __ZN6pqueue12percolate_upEi, symObjAddr: 0xFA68, symBinAddr: 0x1000115E8, symSize: 0xC4 }
  - { offsetInCU: 0x2560D, offset: 0x2560D, size: 0x8, addend: 0x0, symName: __ZN6pqueue5aboveEdd, symObjAddr: 0xFB2C, symBinAddr: 0x1000116AC, symSize: 0x58 }
  - { offsetInCU: 0x2564F, offset: 0x2564F, size: 0x8, addend: 0x0, symName: __ZN6pqueue4swapEii, symObjAddr: 0xFB84, symBinAddr: 0x100011704, symSize: 0x7C }
  - { offsetInCU: 0x2569F, offset: 0x2569F, size: 0x8, addend: 0x0, symName: __ZN6pqueue14percolate_downEi, symObjAddr: 0xFC00, symBinAddr: 0x100011780, symSize: 0x1B8 }
  - { offsetInCU: 0x25719, offset: 0x25719, size: 0x8, addend: 0x0, symName: __ZNSt3__16vectorIN5graph4edgeENS_9allocatorIS2_EEE11__make_iterB8ue170006EPS2_, symObjAddr: 0xFDB8, symBinAddr: 0x100011938, symSize: 0x30 }
  - { offsetInCU: 0x2574E, offset: 0x2574E, size: 0x8, addend: 0x0, symName: __ZNSt3__111__wrap_iterIPN5graph4edgeEEC1B8ue170006ES3_, symObjAddr: 0xFDE8, symBinAddr: 0x100011968, symSize: 0x34 }
  - { offsetInCU: 0x25786, offset: 0x25786, size: 0x8, addend: 0x0, symName: __ZNSt3__111__wrap_iterIPN5graph4edgeEEC2B8ue170006ES3_, symObjAddr: 0xFE1C, symBinAddr: 0x10001199C, symSize: 0x20 }
  - { offsetInCU: 0x257BE, offset: 0x257BE, size: 0x8, addend: 0x0, symName: __ZNKSt3__111__wrap_iterIPN5graph4edgeEE4baseB8ue170006Ev, symObjAddr: 0xFE84, symBinAddr: 0x100011A04, symSize: 0x18 }
  - { offsetInCU: 0x257E4, offset: 0x257E4, size: 0x8, addend: 0x0, symName: __ZN6pqueueD2Ev, symObjAddr: 0xFE9C, symBinAddr: 0x100011A1C, symSize: 0x120 }
  - { offsetInCU: 0x2582B, offset: 0x2582B, size: 0x8, addend: 0x0, symName: __ZN5graph12dijkstraSCANEiRNSt3__16vectorINS_12vertex_labelENS0_9allocatorIS2_EEEE, symObjAddr: 0xFFBC, symBinAddr: 0x100011B3C, symSize: 0x2B0 }
  - { offsetInCU: 0x2592E, offset: 0x2592E, size: 0x8, addend: 0x0, symName: __ZN5graph19get_min_disc_vertexERNSt3__16vectorINS_12vertex_labelENS0_9allocatorIS2_EEEE, symObjAddr: 0x1026C, symBinAddr: 0x100011DEC, symSize: 0xF0 }
  - { offsetInCU: 0x25990, offset: 0x25990, size: 0x8, addend: 0x0, symName: __ZN5graphD2Ev, symObjAddr: 0x1035C, symBinAddr: 0x100011EDC, symSize: 0x44 }
  - { offsetInCU: 0x259BA, offset: 0x259BA, size: 0x8, addend: 0x0, symName: __ZNSt3__113unordered_setINS_12basic_stringIcNS_11char_traitsIcEENS_9allocatorIcEEEENS_4hashIS6_EENS_8equal_toIS6_EENS4_IS6_EEED1B8ue170006Ev, symObjAddr: 0x103A0, symBinAddr: 0x100011F20, symSize: 0x2C }
  - { offsetInCU: 0x259E4, offset: 0x259E4, size: 0x8, addend: 0x0, symName: __ZNSt3__16vectorIN5graph6vertexENS_9allocatorIS2_EEED1B8ue170006Ev, symObjAddr: 0x103CC, symBinAddr: 0x100011F4C, symSize: 0x2C }
  - { offsetInCU: 0x25A0E, offset: 0x25A0E, size: 0x8, addend: 0x0, symName: __ZNSt3__113unordered_mapINS_12basic_stringIcNS_11char_traitsIcEENS_9allocatorIcEEEEiNS_4hashIS6_EENS_8equal_toIS6_EENS4_INS_4pairIKS6_iEEEEED1B8ue170006Ev, symObjAddr: 0x103F8, symBinAddr: 0x100011F78, symSize: 0x2C }
  - { offsetInCU: 0x25A38, offset: 0x25A38, size: 0x8, addend: 0x0, symName: __ZNSt3__113unordered_setINS_12basic_stringIcNS_11char_traitsIcEENS_9allocatorIcEEEENS_4hashIS6_EENS_8equal_toIS6_EENS4_IS6_EEED2B8ue170006Ev, symObjAddr: 0x10424, symBinAddr: 0x100011FA4, symSize: 0x2C }
  - { offsetInCU: 0x25A62, offset: 0x25A62, size: 0x8, addend: 0x0, symName: __ZNSt3__112__hash_tableINS_12basic_stringIcNS_11char_traitsIcEENS_9allocatorIcEEEENS_4hashIS6_EENS_8equal_toIS6_EENS4_IS6_EEED1Ev, symObjAddr: 0x10450, symBinAddr: 0x100011FD0, symSize: 0x2C }
  - { offsetInCU: 0x25A8E, offset: 0x25A8E, size: 0x8, addend: 0x0, symName: __ZNSt3__112__hash_tableINS_12basic_stringIcNS_11char_traitsIcEENS_9allocatorIcEEEENS_4hashIS6_EENS_8equal_toIS6_EENS4_IS6_EEED2Ev, symObjAddr: 0x1047C, symBinAddr: 0x100011FFC, symSize: 0x48 }
  - { offsetInCU: 0x25ABA, offset: 0x25ABA, size: 0x8, addend: 0x0, symName: __ZNSt3__112__hash_tableINS_12basic_stringIcNS_11char_traitsIcEENS_9allocatorIcEEEENS_4hashIS6_EENS_8equal_toIS6_EENS4_IS6_EEE17__deallocate_nodeEPNS_16__hash_node_baseIPNS_11__hash_nodeIS6_PvEEEE, symObjAddr: 0x104C4, symBinAddr: 0x100012044, symSize: 0x98 }
  - { offsetInCU: 0x25B2D, offset: 0x25B2D, size: 0x8, addend: 0x0, symName: __ZNSt3__110unique_ptrIA_PNS_16__hash_node_baseIPNS_11__hash_nodeINS_12basic_stringIcNS_11char_traitsIcEENS_9allocatorIcEEEEPvEEEENS_25__bucket_list_deallocatorINS6_ISD_EEEEED1B8ue170006Ev, symObjAddr: 0x1055C, symBinAddr: 0x1000120DC, symSize: 0x2C }
  - { offsetInCU: 0x25B57, offset: 0x25B57, size: 0x8, addend: 0x0, symName: __ZNSt3__110unique_ptrIA_PNS_16__hash_node_baseIPNS_11__hash_nodeINS_12basic_stringIcNS_11char_traitsIcEENS_9allocatorIcEEEEPvEEEENS_25__bucket_list_deallocatorINS6_ISD_EEEEED2B8ue170006Ev, symObjAddr: 0x10588, symBinAddr: 0x100012108, symSize: 0x30 }
  - { offsetInCU: 0x25B81, offset: 0x25B81, size: 0x8, addend: 0x0, symName: __ZNSt3__110unique_ptrIA_PNS_16__hash_node_baseIPNS_11__hash_nodeINS_12basic_stringIcNS_11char_traitsIcEENS_9allocatorIcEEEEPvEEEENS_25__bucket_list_deallocatorINS6_ISD_EEEEE5resetB8ue170006EDn, symObjAddr: 0x105B8, symBinAddr: 0x100012138, symSize: 0x6C }
  - { offsetInCU: 0x25BC1, offset: 0x25BC1, size: 0x8, addend: 0x0, symName: __ZNSt3__16vectorIN5graph6vertexENS_9allocatorIS2_EEED2B8ue170006Ev, symObjAddr: 0x10624, symBinAddr: 0x1000121A4, symSize: 0x44 }
  - { offsetInCU: 0x25BEB, offset: 0x25BEB, size: 0x8, addend: 0x0, symName: __ZNSt3__16vectorIN5graph6vertexENS_9allocatorIS2_EEE16__destroy_vectorC1B8ue170006ERS5_, symObjAddr: 0x10668, symBinAddr: 0x1000121E8, symSize: 0x34 }
  - { offsetInCU: 0x25C24, offset: 0x25C24, size: 0x8, addend: 0x0, symName: __ZNSt3__16vectorIN5graph6vertexENS_9allocatorIS2_EEE16__destroy_vectorclB8ue170006Ev, symObjAddr: 0x1069C, symBinAddr: 0x10001221C, symSize: 0x90 }
  - { offsetInCU: 0x25C4A, offset: 0x25C4A, size: 0x8, addend: 0x0, symName: __ZNSt3__16vectorIN5graph6vertexENS_9allocatorIS2_EEE16__destroy_vectorC2B8ue170006ERS5_, symObjAddr: 0x1072C, symBinAddr: 0x1000122AC, symSize: 0x20 }
  - { offsetInCU: 0x25C83, offset: 0x25C83, size: 0x8, addend: 0x0, symName: __ZNSt3__16vectorIN5graph6vertexENS_9allocatorIS2_EEE7__clearB8ue170006Ev, symObjAddr: 0x1074C, symBinAddr: 0x1000122CC, symSize: 0x28 }
  - { offsetInCU: 0x25CA9, offset: 0x25CA9, size: 0x8, addend: 0x0, symName: __ZNSt3__16vectorIN5graph6vertexENS_9allocatorIS2_EEE22__base_destruct_at_endB8ue170006EPS2_, symObjAddr: 0x10774, symBinAddr: 0x1000122F4, symSize: 0x8C }
  - { offsetInCU: 0x25CED, offset: 0x25CED, size: 0x8, addend: 0x0, symName: __ZNSt3__113unordered_mapINS_12basic_stringIcNS_11char_traitsIcEENS_9allocatorIcEEEEiNS_4hashIS6_EENS_8equal_toIS6_EENS4_INS_4pairIKS6_iEEEEED2B8ue170006Ev, symObjAddr: 0x10800, symBinAddr: 0x100012380, symSize: 0x2C }
  - { offsetInCU: 0x25D17, offset: 0x25D17, size: 0x8, addend: 0x0, symName: __ZNSt3__112__hash_tableINS_17__hash_value_typeINS_12basic_stringIcNS_11char_traitsIcEENS_9allocatorIcEEEEiEENS_22__unordered_map_hasherIS7_S8_NS_4hashIS7_EENS_8equal_toIS7_EELb1EEENS_21__unordered_map_equalIS7_S8_SD_SB_Lb1EEENS5_IS8_EEED1Ev, symObjAddr: 0x1082C, symBinAddr: 0x1000123AC, symSize: 0x2C }
  - { offsetInCU: 0x25D43, offset: 0x25D43, size: 0x8, addend: 0x0, symName: __ZNSt3__112__hash_tableINS_17__hash_value_typeINS_12basic_stringIcNS_11char_traitsIcEENS_9allocatorIcEEEEiEENS_22__unordered_map_hasherIS7_S8_NS_4hashIS7_EENS_8equal_toIS7_EELb1EEENS_21__unordered_map_equalIS7_S8_SD_SB_Lb1EEENS5_IS8_EEED2Ev, symObjAddr: 0x10858, symBinAddr: 0x1000123D8, symSize: 0x48 }
  - { offsetInCU: 0x25D6F, offset: 0x25D6F, size: 0x8, addend: 0x0, symName: __ZNSt3__112__hash_tableINS_17__hash_value_typeINS_12basic_stringIcNS_11char_traitsIcEENS_9allocatorIcEEEEiEENS_22__unordered_map_hasherIS7_S8_NS_4hashIS7_EENS_8equal_toIS7_EELb1EEENS_21__unordered_map_equalIS7_S8_SD_SB_Lb1EEENS5_IS8_EEE17__deallocate_nodeEPNS_16__hash_node_baseIPNS_11__hash_nodeIS8_PvEEEE, symObjAddr: 0x108A0, symBinAddr: 0x100012420, symSize: 0xA4 }
  - { offsetInCU: 0x25DD9, offset: 0x25DD9, size: 0x8, addend: 0x0, symName: __ZNSt3__110unique_ptrIA_PNS_16__hash_node_baseIPNS_11__hash_nodeINS_17__hash_value_typeINS_12basic_stringIcNS_11char_traitsIcEENS_9allocatorIcEEEEiEEPvEEEENS_25__bucket_list_deallocatorINS7_ISF_EEEEED1B8ue170006Ev, symObjAddr: 0x10944, symBinAddr: 0x1000124C4, symSize: 0x2C }
  - { offsetInCU: 0x25E03, offset: 0x25E03, size: 0x8, addend: 0x0, symName: __ZNSt3__110unique_ptrIA_PNS_16__hash_node_baseIPNS_11__hash_nodeINS_17__hash_value_typeINS_12basic_stringIcNS_11char_traitsIcEENS_9allocatorIcEEEEiEEPvEEEENS_25__bucket_list_deallocatorINS7_ISF_EEEEED2B8ue170006Ev, symObjAddr: 0x10970, symBinAddr: 0x1000124F0, symSize: 0x30 }
  - { offsetInCU: 0x25E2D, offset: 0x25E2D, size: 0x8, addend: 0x0, symName: __ZNSt3__110unique_ptrIA_PNS_16__hash_node_baseIPNS_11__hash_nodeINS_17__hash_value_typeINS_12basic_stringIcNS_11char_traitsIcEENS_9allocatorIcEEEEiEEPvEEEENS_25__bucket_list_deallocatorINS7_ISF_EEEEE5resetB8ue170006EDn, symObjAddr: 0x109A0, symBinAddr: 0x100012520, symSize: 0x6C }
  - { offsetInCU: 0x25E6D, offset: 0x25E6D, size: 0x8, addend: 0x0, symName: __ZNSt3__112basic_stringIcNS_11char_traitsIcEENS_9allocatorIcEEEC2B8ue170006ILi0EEEPKc, symObjAddr: 0x10A0C, symBinAddr: 0x10001258C, symSize: 0x58 }
  - { offsetInCU: 0x25EAC, offset: 0x25EAC, size: 0x8, addend: 0x0, symName: __ZNSt3__16vectorIN5graph12vertex_labelENS_9allocatorIS2_EEEC2B8ue170006Ev, symObjAddr: 0x10A64, symBinAddr: 0x1000125E4, symSize: 0x4C }
  - { offsetInCU: 0x25ED6, offset: 0x25ED6, size: 0x8, addend: 0x0, symName: __ZNSt3__117__compressed_pairIPN5graph12vertex_labelENS_9allocatorIS2_EEEC1B8ue170006IDnNS_18__default_init_tagEEEOT_OT0_, symObjAddr: 0x10AB0, symBinAddr: 0x100012630, symSize: 0x3C }
  - { offsetInCU: 0x25F2E, offset: 0x25F2E, size: 0x8, addend: 0x0, symName: __ZNSt3__117__compressed_pairIPN5graph12vertex_labelENS_9allocatorIS2_EEEC2B8ue170006IDnNS_18__default_init_tagEEEOT_OT0_, symObjAddr: 0x10AEC, symBinAddr: 0x10001266C, symSize: 0x40 }
  - { offsetInCU: 0x25F86, offset: 0x25F86, size: 0x8, addend: 0x0, symName: __ZNSt3__122__compressed_pair_elemINS_9allocatorIN5graph12vertex_labelEEELi1ELb1EEC2B8ue170006ENS_18__default_init_tagE, symObjAddr: 0x10B2C, symBinAddr: 0x1000126AC, symSize: 0x2C }
  - { offsetInCU: 0x25FBB, offset: 0x25FBB, size: 0x8, addend: 0x0, symName: __ZNSt3__19allocatorIN5graph12vertex_labelEEC2B8ue170006Ev, symObjAddr: 0x10B58, symBinAddr: 0x1000126D8, symSize: 0x2C }
  - { offsetInCU: 0x25FE5, offset: 0x25FE5, size: 0x8, addend: 0x0, symName: __ZNSt3__116__non_trivial_ifILb1ENS_9allocatorIN5graph12vertex_labelEEEEC2B8ue170006Ev, symObjAddr: 0x10B84, symBinAddr: 0x100012704, symSize: 0x14 }
  - { offsetInCU: 0x2600F, offset: 0x2600F, size: 0x8, addend: 0x0, symName: __ZNSt3__16vectorIN5graph12vertex_labelENS_9allocatorIS2_EEED2B8ue170006Ev, symObjAddr: 0x10B98, symBinAddr: 0x100012718, symSize: 0x44 }
  - { offsetInCU: 0x26039, offset: 0x26039, size: 0x8, addend: 0x0, symName: __ZNSt3__16vectorIN5graph12vertex_labelENS_9allocatorIS2_EEE16__destroy_vectorC1B8ue170006ERS5_, symObjAddr: 0x10BDC, symBinAddr: 0x10001275C, symSize: 0x34 }
  - { offsetInCU: 0x26072, offset: 0x26072, size: 0x8, addend: 0x0, symName: __ZNSt3__16vectorIN5graph12vertex_labelENS_9allocatorIS2_EEE16__destroy_vectorclB8ue170006Ev, symObjAddr: 0x10C10, symBinAddr: 0x100012790, symSize: 0x90 }
  - { offsetInCU: 0x26098, offset: 0x26098, size: 0x8, addend: 0x0, symName: __ZNSt3__16vectorIN5graph12vertex_labelENS_9allocatorIS2_EEE16__destroy_vectorC2B8ue170006ERS5_, symObjAddr: 0x10CA0, symBinAddr: 0x100012820, symSize: 0x20 }
...
